
========================================================================

** ELF Header Information

    File Name: .\obj\template.axf

    Machine class: ELFCLASS32 (32-bit)
    Data encoding: ELFDATA2LSB (Little endian)
    Header version: EV_CURRENT (Current version)
    Operating System ABI: none
    ABI Version: 0
    File Type: ET_EXEC (Executable) (2)
    Machine: EM_ARM (ARM)

    Image Entry point: 0x000000f1
    Flags: EF_ARM_HASENTRY + EF_ARM_ABI_FLOAT_SOFT (0x05000202)

    ARM ELF revision: 5 (ABI version 2)

    Conforms to Soft float procedure-call standard

    Built with
    Component: ARM Compiler 5.06 update 6 (build 750) Tool: armasm [4d35ec]
    Component: ARM Compiler 5.06 update 6 (build 750) Tool: armlink [4d35ed]

    Header size: 52 bytes (0x34)
    Program header entry size: 32 bytes (0x20)
    Section header entry size: 40 bytes (0x28)

    Program header entries: 1
    Section header entries: 16

    Program header offset: 179700 (0x0002bdf4)
    Section header offset: 179732 (0x0002be14)

    Section header string table index: 15

========================================================================

** Program header #0 (PT_LOAD) [PF_X + PF_W + PF_R + PF_ARM_ENTRY]
    Size : 9912 bytes (8372 bytes in file)
    Virtual address: 0x00000000 (Alignment 8)


========================================================================

** Section #1 'ER_RO' (SHT_PROGBITS) [SHF_ALLOC + SHF_EXECINSTR]
    Size   : 8296 bytes (alignment 4)
    Address: 0x00000000

    $d.realdata
    RESET
    __Vectors
        0x00000000:    20000650    P..     DCD    536872528
        0x00000004:    000000f1    ....    DCD    241
        0x00000008:    00000111    ....    DCD    273
        0x0000000c:    000000d5    ....    DCD    213
        0x00000010:    00000000    ....    DCD    0
        0x00000014:    00000000    ....    DCD    0
        0x00000018:    00000000    ....    DCD    0
        0x0000001c:    00000000    ....    DCD    0
        0x00000020:    00000000    ....    DCD    0
        0x00000024:    00000000    ....    DCD    0
        0x00000028:    00000000    ....    DCD    0
        0x0000002c:    00000115    ....    DCD    277
        0x00000030:    00000000    ....    DCD    0
        0x00000034:    00000000    ....    DCD    0
        0x00000038:    00000117    ....    DCD    279
        0x0000003c:    000010dd    ....    DCD    4317
        0x00000040:    0000011b    ....    DCD    283
        0x00000044:    0000011b    ....    DCD    283
        0x00000048:    0000011b    ....    DCD    283
        0x0000004c:    0000011b    ....    DCD    283
        0x00000050:    0000011b    ....    DCD    283
        0x00000054:    0000011b    ....    DCD    283
        0x00000058:    0000011b    ....    DCD    283
        0x0000005c:    0000011b    ....    DCD    283
        0x00000060:    0000011b    ....    DCD    283
        0x00000064:    000012e1    ....    DCD    4833
        0x00000068:    0000011b    ....    DCD    283
        0x0000006c:    0000011b    ....    DCD    283
        0x00000070:    00001331    1...    DCD    4913
        0x00000074:    0000011b    ....    DCD    283
        0x00000078:    0000011b    ....    DCD    283
        0x0000007c:    0000011b    ....    DCD    283
        0x00000080:    0000011b    ....    DCD    283
        0x00000084:    0000011b    ....    DCD    283
        0x00000088:    0000011b    ....    DCD    283
        0x0000008c:    0000011b    ....    DCD    283
        0x00000090:    0000011b    ....    DCD    283
        0x00000094:    0000011b    ....    DCD    283
        0x00000098:    0000011b    ....    DCD    283
        0x0000009c:    0000011b    ....    DCD    283
        0x000000a0:    0000011b    ....    DCD    283
        0x000000a4:    0000011b    ....    DCD    283
        0x000000a8:    0000011b    ....    DCD    283
        0x000000ac:    0000011b    ....    DCD    283
        0x000000b0:    0000011b    ....    DCD    283
        0x000000b4:    0000011b    ....    DCD    283
        0x000000b8:    0000011b    ....    DCD    283
        0x000000bc:    0000011b    ....    DCD    283
    $t
    .ARM.Collect$$$$00000000
    .ARM.Collect$$$$00000001
    __main
    _main_stk
        0x000000c0:    4803        .H      LDR      r0,__lit__00000000 ; [0xd0] = 0x20000650
        0x000000c2:    4685        .F      MOV      sp,r0
    .ARM.Collect$$$$00000004
    _main_scatterload
        0x000000c4:    f000f892    ....    BL       __scatterload ; 0x1ec
    .ARM.Collect$$$$00000008
    .ARM.Collect$$$$0000000A
    .ARM.Collect$$$$0000000B
    __main_after_scatterload
    _main_clock
    _main_cpp_init
    _main_init
        0x000000c8:    4800        .H      LDR      r0,[pc,#0] ; [0xcc] = 0x1e75
        0x000000ca:    4700        .G      BX       r0
    $d
        0x000000cc:    00001e75    u...    DCD    7797
    .ARM.Collect$$$$00002712
    __lit__00000000
    .ARM.Collect$$$$0000000D
    .ARM.Collect$$$$0000000F
    __rt_final_cpp
    __rt_final_exit
        0x000000d0:    20000650    P..     DCD    536872528
    $t
    .emb_text
    HardFault_Handler
        0x000000d4:    2004        .       MOVS     r0,#4
        0x000000d6:    4671        qF      MOV      r1,lr
        0x000000d8:    4208        .B      TST      r0,r1
        0x000000da:    d002        ..      BEQ      0xe2 ; HardFault_Handler + 14
        0x000000dc:    f3ef8009    ....    MRS      r0,PSP
        0x000000e0:    e001        ..      B        0xe6 ; HardFault_Handler + 18
        0x000000e2:    f3ef8008    ....    MRS      r0,MSP
        0x000000e6:    4671        qF      MOV      r1,lr
        0x000000e8:    4a00        .J      LDR      r2,[pc,#0] ; [0xec] = 0xc9d
        0x000000ea:    4710        .G      BX       r2
    $d
        0x000000ec:    00000c9d    ....    DCD    3229
    $t
    .text
    Reset_Handler
        0x000000f0:    480a        .H      LDR      r0,[pc,#40] ; [0x11c] = 0x50000100
        0x000000f2:    490b        .I      LDR      r1,[pc,#44] ; [0x120] = 0x59
        0x000000f4:    6001        .`      STR      r1,[r0,#0]
        0x000000f6:    490b        .I      LDR      r1,[pc,#44] ; [0x124] = 0x16
        0x000000f8:    6001        .`      STR      r1,[r0,#0]
        0x000000fa:    490b        .I      LDR      r1,[pc,#44] ; [0x128] = 0x88
        0x000000fc:    6001        .`      STR      r1,[r0,#0]
        0x000000fe:    4a0b        .J      LDR      r2,[pc,#44] ; [0x12c] = 0x50000024
        0x00000100:    490b        .I      LDR      r1,[pc,#44] ; [0x130] = 0x5aa5
        0x00000102:    6011        .`      STR      r1,[r2,#0]
        0x00000104:    2100        .!      MOVS     r1,#0
        0x00000106:    6001        .`      STR      r1,[r0,#0]
        0x00000108:    480a        .H      LDR      r0,[pc,#40] ; [0x134] = 0x1201
        0x0000010a:    4780        .G      BLX      r0
        0x0000010c:    480a        .H      LDR      r0,[pc,#40] ; [0x138] = 0xc1
        0x0000010e:    4700        .G      BX       r0
    NMI_Handler
        0x00000110:    e7fe        ..      B        NMI_Handler ; 0x110
        0x00000112:    e7fe        ..      B        0x112 ; NMI_Handler + 2
    SVC_Handler
        0x00000114:    e7fe        ..      B        SVC_Handler ; 0x114
    PendSV_Handler
        0x00000116:    e7fe        ..      B        PendSV_Handler ; 0x116
        0x00000118:    e7fe        ..      B        0x118 ; PendSV_Handler + 2
    Default_Handler
    ADC_IRQHandler
    BOD_IRQHandler
    EINT0_IRQHandler
    EINT1_IRQHandler
    GPAB_IRQHandler
    GPCDEF_IRQHandler
    I2C0_IRQHandler
    I2C1_IRQHandler
    PDMA_IRQHandler
    PWMA_IRQHandler
    PWMB_IRQHandler
    PWRWU_IRQHandler
    RTC_IRQHandler
    SPI0_IRQHandler
    SPI1_IRQHandler
    TMR0_IRQHandler
    TMR2_IRQHandler
    TMR3_IRQHandler
    UART1_IRQHandler
    USBD_IRQHandler
    WDT_IRQHandler
        0x0000011a:    e7fe        ..      B        Default_Handler ; 0x11a
    $d
        0x0000011c:    50000100    ...P    DCD    1342177536
        0x00000120:    00000059    Y...    DCD    89
        0x00000124:    00000016    ....    DCD    22
        0x00000128:    00000088    ....    DCD    136
        0x0000012c:    50000024    $..P    DCD    1342177316
        0x00000130:    00005aa5    .Z..    DCD    23205
        0x00000134:    00001201    ....    DCD    4609
        0x00000138:    000000c1    ....    DCD    193
    $t
    .text
    __aeabi_uidiv
    __aeabi_uidivmod
        0x0000013c:    b530        0.      PUSH     {r4,r5,lr}
        0x0000013e:    460b        .F      MOV      r3,r1
        0x00000140:    4601        .F      MOV      r1,r0
        0x00000142:    2000        .       MOVS     r0,#0
        0x00000144:    2220         "      MOVS     r2,#0x20
        0x00000146:    2401        .$      MOVS     r4,#1
        0x00000148:    e009        ..      B        0x15e ; __aeabi_uidiv + 34
        0x0000014a:    460d        .F      MOV      r5,r1
        0x0000014c:    40d5        .@      LSRS     r5,r5,r2
        0x0000014e:    429d        .B      CMP      r5,r3
        0x00000150:    d305        ..      BCC      0x15e ; __aeabi_uidiv + 34
        0x00000152:    461d        .F      MOV      r5,r3
        0x00000154:    4095        .@      LSLS     r5,r5,r2
        0x00000156:    1b49        I.      SUBS     r1,r1,r5
        0x00000158:    4625        %F      MOV      r5,r4
        0x0000015a:    4095        .@      LSLS     r5,r5,r2
        0x0000015c:    1940        @.      ADDS     r0,r0,r5
        0x0000015e:    4615        .F      MOV      r5,r2
        0x00000160:    1e52        R.      SUBS     r2,r2,#1
        0x00000162:    2d00        .-      CMP      r5,#0
        0x00000164:    dcf1        ..      BGT      0x14a ; __aeabi_uidiv + 14
        0x00000166:    bd30        0.      POP      {r4,r5,pc}
    .text
    __aeabi_memcpy
    __aeabi_memcpy4
    __aeabi_memcpy8
        0x00000168:    4603        .F      MOV      r3,r0
        0x0000016a:    430b        .C      ORRS     r3,r3,r1
        0x0000016c:    079b        ..      LSLS     r3,r3,#30
        0x0000016e:    d003        ..      BEQ      0x178 ; __aeabi_memcpy + 16
        0x00000170:    e009        ..      B        0x186 ; __aeabi_memcpy + 30
        0x00000172:    c908        ..      LDM      r1!,{r3}
        0x00000174:    1f12        ..      SUBS     r2,r2,#4
        0x00000176:    c008        ..      STM      r0!,{r3}
        0x00000178:    2a04        .*      CMP      r2,#4
        0x0000017a:    d2fa        ..      BCS      0x172 ; __aeabi_memcpy + 10
        0x0000017c:    e003        ..      B        0x186 ; __aeabi_memcpy + 30
        0x0000017e:    780b        .x      LDRB     r3,[r1,#0]
        0x00000180:    7003        .p      STRB     r3,[r0,#0]
        0x00000182:    1c40        @.      ADDS     r0,r0,#1
        0x00000184:    1c49        I.      ADDS     r1,r1,#1
        0x00000186:    1e52        R.      SUBS     r2,r2,#1
        0x00000188:    d2f9        ..      BCS      0x17e ; __aeabi_memcpy + 22
        0x0000018a:    4770        pG      BX       lr
    .text
    __aeabi_uldivmod
        0x0000018c:    b5f0        ..      PUSH     {r4-r7,lr}
        0x0000018e:    b41f        ..      PUSH     {r0-r4}
        0x00000190:    4606        .F      MOV      r6,r0
        0x00000192:    2000        .       MOVS     r0,#0
        0x00000194:    b082        ..      SUB      sp,sp,#8
        0x00000196:    4605        .F      MOV      r5,r0
        0x00000198:    2440        @$      MOVS     r4,#0x40
        0x0000019a:    9101        ..      STR      r1,[sp,#4]
        0x0000019c:    9000        ..      STR      r0,[sp,#0]
        0x0000019e:    e01b        ..      B        0x1d8 ; __aeabi_uldivmod + 76
        0x000001a0:    9901        ..      LDR      r1,[sp,#4]
        0x000001a2:    4622        "F      MOV      r2,r4
        0x000001a4:    460f        .F      MOV      r7,r1
        0x000001a6:    4630        0F      MOV      r0,r6
        0x000001a8:    f000f842    ..B.    BL       __aeabi_llsr ; 0x230
        0x000001ac:    9a04        ..      LDR      r2,[sp,#0x10]
        0x000001ae:    9b05        ..      LDR      r3,[sp,#0x14]
        0x000001b0:    1a80        ..      SUBS     r0,r0,r2
        0x000001b2:    4199        .A      SBCS     r1,r1,r3
        0x000001b4:    d310        ..      BCC      0x1d8 ; __aeabi_uldivmod + 76
        0x000001b6:    4610        .F      MOV      r0,r2
        0x000001b8:    4619        .F      MOV      r1,r3
        0x000001ba:    4622        "F      MOV      r2,r4
        0x000001bc:    f000f828    ..(.    BL       __aeabi_llsl ; 0x210
        0x000001c0:    1a36        6.      SUBS     r6,r6,r0
        0x000001c2:    418f        .A      SBCS     r7,r7,r1
        0x000001c4:    9701        ..      STR      r7,[sp,#4]
        0x000001c6:    4622        "F      MOV      r2,r4
        0x000001c8:    2001        .       MOVS     r0,#1
        0x000001ca:    2100        .!      MOVS     r1,#0
        0x000001cc:    9f00        ..      LDR      r7,[sp,#0]
        0x000001ce:    f000f81f    ....    BL       __aeabi_llsl ; 0x210
        0x000001d2:    1838        8.      ADDS     r0,r7,r0
        0x000001d4:    414d        MA      ADCS     r5,r5,r1
        0x000001d6:    9000        ..      STR      r0,[sp,#0]
        0x000001d8:    4620         F      MOV      r0,r4
        0x000001da:    1e64        d.      SUBS     r4,r4,#1
        0x000001dc:    2800        .(      CMP      r0,#0
        0x000001de:    dcdf        ..      BGT      0x1a0 ; __aeabi_uldivmod + 20
        0x000001e0:    9b01        ..      LDR      r3,[sp,#4]
        0x000001e2:    9800        ..      LDR      r0,[sp,#0]
        0x000001e4:    4629        )F      MOV      r1,r5
        0x000001e6:    4632        2F      MOV      r2,r6
        0x000001e8:    b007        ..      ADD      sp,sp,#0x1c
        0x000001ea:    bdf0        ..      POP      {r4-r7,pc}
    .text
    __scatterload
    __scatterload_rt2
        0x000001ec:    4c06        .L      LDR      r4,[pc,#24] ; [0x208] = 0x2048
        0x000001ee:    2501        .%      MOVS     r5,#1
        0x000001f0:    4e06        .N      LDR      r6,[pc,#24] ; [0x20c] = 0x2068
        0x000001f2:    e005        ..      B        0x200 ; __scatterload + 20
        0x000001f4:    68e3        .h      LDR      r3,[r4,#0xc]
        0x000001f6:    cc07        ..      LDM      r4!,{r0-r2}
        0x000001f8:    432b        +C      ORRS     r3,r3,r5
        0x000001fa:    3c0c        .<      SUBS     r4,r4,#0xc
        0x000001fc:    4798        .G      BLX      r3
        0x000001fe:    3410        .4      ADDS     r4,r4,#0x10
        0x00000200:    42b4        .B      CMP      r4,r6
        0x00000202:    d3f7        ..      BCC      0x1f4 ; __scatterload + 8
        0x00000204:    f7ffff60    ..`.    BL       __main_after_scatterload ; 0xc8
    $d
        0x00000208:    00002048    H ..    DCD    8264
        0x0000020c:    00002068    h ..    DCD    8296
    $t
    .text
    __aeabi_llsl
    _ll_shift_l
        0x00000210:    b510        ..      PUSH     {r4,lr}
        0x00000212:    2a20         *      CMP      r2,#0x20
        0x00000214:    db04        ..      BLT      0x220 ; __aeabi_llsl + 16
        0x00000216:    4601        .F      MOV      r1,r0
        0x00000218:    3a20         :      SUBS     r2,r2,#0x20
        0x0000021a:    4091        .@      LSLS     r1,r1,r2
        0x0000021c:    2000        .       MOVS     r0,#0
        0x0000021e:    bd10        ..      POP      {r4,pc}
        0x00000220:    4091        .@      LSLS     r1,r1,r2
        0x00000222:    2320         #      MOVS     r3,#0x20
        0x00000224:    1a9c        ..      SUBS     r4,r3,r2
        0x00000226:    4603        .F      MOV      r3,r0
        0x00000228:    40e3        .@      LSRS     r3,r3,r4
        0x0000022a:    4319        .C      ORRS     r1,r1,r3
        0x0000022c:    4090        .@      LSLS     r0,r0,r2
        0x0000022e:    bd10        ..      POP      {r4,pc}
    .text
    __aeabi_llsr
    _ll_ushift_r
        0x00000230:    b510        ..      PUSH     {r4,lr}
        0x00000232:    2a20         *      CMP      r2,#0x20
        0x00000234:    db04        ..      BLT      0x240 ; __aeabi_llsr + 16
        0x00000236:    4608        .F      MOV      r0,r1
        0x00000238:    3a20         :      SUBS     r2,r2,#0x20
        0x0000023a:    40d0        .@      LSRS     r0,r0,r2
        0x0000023c:    2100        .!      MOVS     r1,#0
        0x0000023e:    bd10        ..      POP      {r4,pc}
        0x00000240:    460b        .F      MOV      r3,r1
        0x00000242:    40d3        .@      LSRS     r3,r3,r2
        0x00000244:    40d0        .@      LSRS     r0,r0,r2
        0x00000246:    2420         $      MOVS     r4,#0x20
        0x00000248:    1aa2        ..      SUBS     r2,r4,r2
        0x0000024a:    4091        .@      LSLS     r1,r1,r2
        0x0000024c:    4308        .C      ORRS     r0,r0,r1
        0x0000024e:    4619        .F      MOV      r1,r3
        0x00000250:    bd10        ..      POP      {r4,pc}
        0x00000252:    0000        ..      MOVS     r0,r0
    i.CLK_EnableModuleClock
    CLK_EnableModuleClock
        0x00000254:    b51f        ..      PUSH     {r0-r4,lr}
        0x00000256:    4909        .I      LDR      r1,[pc,#36] ; [0x27c] = 0x2008
        0x00000258:    c91e        ..      LDM      r1,{r1-r4}
        0x0000025a:    9403        ..      STR      r4,[sp,#0xc]
        0x0000025c:    466c        lF      MOV      r4,sp
        0x0000025e:    c40e        ..      STM      r4!,{r1-r3}
        0x00000260:    0f81        ..      LSRS     r1,r0,#30
        0x00000262:    008a        ..      LSLS     r2,r1,#2
        0x00000264:    4669        iF      MOV      r1,sp
        0x00000266:    588a        .X      LDR      r2,[r1,r2]
        0x00000268:    4905        .I      LDR      r1,[pc,#20] ; [0x280] = 0x50000200
        0x0000026a:    1851        Q.      ADDS     r1,r2,r1
        0x0000026c:    684a        Jh      LDR      r2,[r1,#4]
        0x0000026e:    06c3        ..      LSLS     r3,r0,#27
        0x00000270:    0edb        ..      LSRS     r3,r3,#27
        0x00000272:    2001        .       MOVS     r0,#1
        0x00000274:    4098        .@      LSLS     r0,r0,r3
        0x00000276:    4302        .C      ORRS     r2,r2,r0
        0x00000278:    604a        J`      STR      r2,[r1,#4]
        0x0000027a:    bd1f        ..      POP      {r0-r4,pc}
    $d
        0x0000027c:    00002008    . ..    DCD    8200
        0x00000280:    50000200    ...P    DCD    1342177792
    $t
    i.CLK_EnablePLL
    CLK_EnablePLL
        0x00000284:    b5f0        ..      PUSH     {r4-r7,lr}
        0x00000286:    0007        ..      MOVS     r7,r0
        0x00000288:    460c        .F      MOV      r4,r1
        0x0000028a:    4856        VH      LDR      r0,[pc,#344] ; [0x3e4] = 0x50000200
        0x0000028c:    b085        ..      SUB      sp,sp,#0x14
        0x0000028e:    4954        TI      LDR      r1,[pc,#336] ; [0x3e0] = 0x10000
        0x00000290:    6201        .b      STR      r1,[r0,#0x20]
        0x00000292:    4e55        UN      LDR      r6,[pc,#340] ; [0x3e8] = 0xb71b00
        0x00000294:    6801        .h      LDR      r1,[r0,#0]
        0x00000296:    d013        ..      BEQ      0x2c0 ; CLK_EnablePLL + 60
        0x00000298:    2204        ."      MOVS     r2,#4
        0x0000029a:    4311        .C      ORRS     r1,r1,r2
        0x0000029c:    6001        .`      STR      r1,[r0,#0]
        0x0000029e:    2010        .       MOVS     r0,#0x10
        0x000002a0:    f000fa34    ..4.    BL       CLK_WaitClockReady ; 0x70c
        0x000002a4:    2001        .       MOVS     r0,#1
        0x000002a6:    04c0        ..      LSLS     r0,r0,#19
        0x000002a8:    9002        ..      STR      r0,[sp,#8]
        0x000002aa:    4850        PH      LDR      r0,[pc,#320] ; [0x3ec] = 0x1518000
        0x000002ac:    2504        .%      MOVS     r5,#4
        0x000002ae:    9003        ..      STR      r0,[sp,#0xc]
        0x000002b0:    484f        OH      LDR      r0,[pc,#316] ; [0x3f0] = 0xfa0a1eff
        0x000002b2:    4950        PI      LDR      r1,[pc,#320] ; [0x3f4] = 0x5f5e0ff
        0x000002b4:    1820         .      ADDS     r0,r4,r0
        0x000002b6:    4288        .B      CMP      r0,r1
        0x000002b8:    d80d        ..      BHI      0x2d6 ; CLK_EnablePLL + 82
        0x000002ba:    2000        .       MOVS     r0,#0
        0x000002bc:    9004        ..      STR      r0,[sp,#0x10]
        0x000002be:    e01c        ..      B        0x2fa ; CLK_EnablePLL + 118
        0x000002c0:    2201        ."      MOVS     r2,#1
        0x000002c2:    4311        .C      ORRS     r1,r1,r2
        0x000002c4:    6001        .`      STR      r1,[r0,#0]
        0x000002c6:    4610        .F      MOV      r0,r2
        0x000002c8:    f000fa20    .. .    BL       CLK_WaitClockReady ; 0x70c
        0x000002cc:    2000        .       MOVS     r0,#0
        0x000002ce:    2502        .%      MOVS     r5,#2
        0x000002d0:    9603        ..      STR      r6,[sp,#0xc]
        0x000002d2:    9002        ..      STR      r0,[sp,#8]
        0x000002d4:    e7ec        ..      B        0x2b0 ; CLK_EnablePLL + 44
        0x000002d6:    4848        HH      LDR      r0,[pc,#288] ; [0x3f8] = 0xfd050f7f
        0x000002d8:    4948        HI      LDR      r1,[pc,#288] ; [0x3fc] = 0x2faf07f
        0x000002da:    1820         .      ADDS     r0,r4,r0
        0x000002dc:    4288        .B      CMP      r0,r1
        0x000002de:    d803        ..      BHI      0x2e8 ; CLK_EnablePLL + 100
        0x000002e0:    2001        .       MOVS     r0,#1
        0x000002e2:    0064        d.      LSLS     r4,r4,#1
        0x000002e4:    9004        ..      STR      r0,[sp,#0x10]
        0x000002e6:    e008        ..      B        0x2fa ; CLK_EnablePLL + 118
        0x000002e8:    4845        EH      LDR      r0,[pc,#276] ; [0x400] = 0xfe8287c0
        0x000002ea:    4945        EI      LDR      r1,[pc,#276] ; [0x400] = 0xfe8287c0
        0x000002ec:    1820         .      ADDS     r0,r4,r0
        0x000002ee:    4249        IB      RSBS     r1,r1,#0
        0x000002f0:    4288        .B      CMP      r0,r1
        0x000002f2:    d849        I.      BHI      0x388 ; CLK_EnablePLL + 260
        0x000002f4:    2003        .       MOVS     r0,#3
        0x000002f6:    00a4        ..      LSLS     r4,r4,#2
        0x000002f8:    9004        ..      STR      r0,[sp,#0x10]
        0x000002fa:    2600        .&      MOVS     r6,#0
        0x000002fc:    43f6        .C      MVNS     r6,r6
        0x000002fe:    2000        .       MOVS     r0,#0
        0x00000300:    9000        ..      STR      r0,[sp,#0]
        0x00000302:    9001        ..      STR      r0,[sp,#4]
        0x00000304:    e021        !.      B        0x34a ; CLK_EnablePLL + 198
        0x00000306:    4629        )F      MOV      r1,r5
        0x00000308:    9803        ..      LDR      r0,[sp,#0xc]
        0x0000030a:    f7ffff17    ....    BL       __aeabi_uidiv ; 0x13c
        0x0000030e:    493d        =I      LDR      r1,[pc,#244] ; [0x404] = 0xffe795ff
        0x00000310:    4a3d        =J      LDR      r2,[pc,#244] ; [0x408] = 0xcc77bf
        0x00000312:    1841        A.      ADDS     r1,r0,r1
        0x00000314:    4291        .B      CMP      r1,r2
        0x00000316:    d217        ..      BCS      0x348 ; CLK_EnablePLL + 196
        0x00000318:    2202        ."      MOVS     r2,#2
        0x0000031a:    4b35        5K      LDR      r3,[pc,#212] ; [0x3f0] = 0xfa0a1eff
        0x0000031c:    4601        .F      MOV      r1,r0
        0x0000031e:    4351        QC      MULS     r1,r2,r1
        0x00000320:    1c5b        [.      ADDS     r3,r3,#1
        0x00000322:    18cf        ..      ADDS     r7,r1,r3
        0x00000324:    425b        [B      RSBS     r3,r3,#0
        0x00000326:    429f        .B      CMP      r7,r3
        0x00000328:    d80a        ..      BHI      0x340 ; CLK_EnablePLL + 188
        0x0000032a:    42a1        .B      CMP      r1,r4
        0x0000032c:    d901        ..      BLS      0x332 ; CLK_EnablePLL + 174
        0x0000032e:    1b0b        ..      SUBS     r3,r1,r4
        0x00000330:    e000        ..      B        0x334 ; CLK_EnablePLL + 176
        0x00000332:    1a63        c.      SUBS     r3,r4,r1
        0x00000334:    42b3        .B      CMP      r3,r6
        0x00000336:    d203        ..      BCS      0x340 ; CLK_EnablePLL + 188
        0x00000338:    001e        ..      MOVS     r6,r3
        0x0000033a:    9500        ..      STR      r5,[sp,#0]
        0x0000033c:    9201        ..      STR      r2,[sp,#4]
        0x0000033e:    d003        ..      BEQ      0x348 ; CLK_EnablePLL + 196
        0x00000340:    4932        2I      LDR      r1,[pc,#200] ; [0x40c] = 0x201
        0x00000342:    1c52        R.      ADDS     r2,r2,#1
        0x00000344:    428a        .B      CMP      r2,r1
        0x00000346:    d9e8        ..      BLS      0x31a ; CLK_EnablePLL + 150
        0x00000348:    1c6d        m.      ADDS     r5,r5,#1
        0x0000034a:    2d21        !-      CMP      r5,#0x21
        0x0000034c:    d9db        ..      BLS      0x306 ; CLK_EnablePLL + 130
        0x0000034e:    9804        ..      LDR      r0,[sp,#0x10]
        0x00000350:    9902        ..      LDR      r1,[sp,#8]
        0x00000352:    0380        ..      LSLS     r0,r0,#14
        0x00000354:    4308        .C      ORRS     r0,r0,r1
        0x00000356:    9900        ..      LDR      r1,[sp,#0]
        0x00000358:    2201        ."      MOVS     r2,#1
        0x0000035a:    0249        I.      LSLS     r1,r1,#9
        0x0000035c:    0292        ..      LSLS     r2,r2,#10
        0x0000035e:    1a89        ..      SUBS     r1,r1,r2
        0x00000360:    4308        .C      ORRS     r0,r0,r1
        0x00000362:    9901        ..      LDR      r1,[sp,#4]
        0x00000364:    1e89        ..      SUBS     r1,r1,#2
        0x00000366:    4308        .C      ORRS     r0,r0,r1
        0x00000368:    491e        .I      LDR      r1,[pc,#120] ; [0x3e4] = 0x50000200
        0x0000036a:    6208        .b      STR      r0,[r1,#0x20]
        0x0000036c:    2004        .       MOVS     r0,#4
        0x0000036e:    f000f9cd    ....    BL       CLK_WaitClockReady ; 0x70c
        0x00000372:    9904        ..      LDR      r1,[sp,#0x10]
        0x00000374:    9800        ..      LDR      r0,[sp,#0]
        0x00000376:    1c49        I.      ADDS     r1,r1,#1
        0x00000378:    4341        AC      MULS     r1,r0,r1
        0x0000037a:    9803        ..      LDR      r0,[sp,#0xc]
        0x0000037c:    f7fffede    ....    BL       __aeabi_uidiv ; 0x13c
        0x00000380:    9901        ..      LDR      r1,[sp,#4]
        0x00000382:    4348        HC      MULS     r0,r1,r0
        0x00000384:    b005        ..      ADD      sp,sp,#0x14
        0x00000386:    bdf0        ..      POP      {r4-r7,pc}
        0x00000388:    2f00        ./      CMP      r7,#0
        0x0000038a:    d00f        ..      BEQ      0x3ac ; CLK_EnablePLL + 296
        0x0000038c:    4920         I      LDR      r1,[pc,#128] ; [0x410] = 0x8d66f
        0x0000038e:    4815        .H      LDR      r0,[pc,#84] ; [0x3e4] = 0x50000200
        0x00000390:    6201        .b      STR      r1,[r0,#0x20]
        0x00000392:    2004        .       MOVS     r0,#4
        0x00000394:    f000f9ba    ....    BL       CLK_WaitClockReady ; 0x70c
        0x00000398:    a01e        ..      ADR      r0,{pc}+0x7c ; 0x414
        0x0000039a:    6800        .h      LDR      r0,[r0,#0]
        0x0000039c:    9000        ..      STR      r0,[sp,#0]
        0x0000039e:    4811        .H      LDR      r0,[pc,#68] ; [0x3e4] = 0x50000200
        0x000003a0:    6a01        .j      LDR      r1,[r0,#0x20]
        0x000003a2:    1300        ..      ASRS     r0,r0,#12
        0x000003a4:    4201        .B      TST      r1,r0
        0x000003a6:    d003        ..      BEQ      0x3b0 ; CLK_EnablePLL + 300
        0x000003a8:    2000        .       MOVS     r0,#0
        0x000003aa:    e7eb        ..      B        0x384 ; CLK_EnablePLL + 256
        0x000003ac:    491a        .I      LDR      r1,[pc,#104] ; [0x418] = 0xc22e
        0x000003ae:    e7ee        ..      B        0x38e ; CLK_EnablePLL + 266
        0x000003b0:    0308        ..      LSLS     r0,r1,#12
        0x000003b2:    d500        ..      BPL      0x3b6 ; CLK_EnablePLL + 306
        0x000003b4:    4e0d        .N      LDR      r6,[pc,#52] ; [0x3ec] = 0x1518000
        0x000003b6:    0388        ..      LSLS     r0,r1,#14
        0x000003b8:    d501        ..      BPL      0x3be ; CLK_EnablePLL + 314
        0x000003ba:    4630        0F      MOV      r0,r6
        0x000003bc:    e7e2        ..      B        0x384 ; CLK_EnablePLL + 256
        0x000003be:    0408        ..      LSLS     r0,r1,#16
        0x000003c0:    0f80        ..      LSRS     r0,r0,#30
        0x000003c2:    466a        jF      MOV      r2,sp
        0x000003c4:    5c10        .\      LDRB     r0,[r2,r0]
        0x000003c6:    05ca        ..      LSLS     r2,r1,#23
        0x000003c8:    0489        ..      LSLS     r1,r1,#18
        0x000003ca:    0ec9        ..      LSRS     r1,r1,#27
        0x000003cc:    1c89        ..      ADDS     r1,r1,#2
        0x000003ce:    0dd2        ..      LSRS     r2,r2,#23
        0x000003d0:    4341        AC      MULS     r1,r0,r1
        0x000003d2:    08b0        ..      LSRS     r0,r6,#2
        0x000003d4:    1c92        ..      ADDS     r2,r2,#2
        0x000003d6:    4350        PC      MULS     r0,r2,r0
        0x000003d8:    f7fffeb0    ....    BL       __aeabi_uidiv ; 0x13c
        0x000003dc:    0080        ..      LSLS     r0,r0,#2
        0x000003de:    e7d1        ..      B        0x384 ; CLK_EnablePLL + 256
    $d
        0x000003e0:    00010000    ....    DCD    65536
        0x000003e4:    50000200    ...P    DCD    1342177792
        0x000003e8:    00b71b00    ....    DCD    12000000
        0x000003ec:    01518000    ..Q.    DCD    22118400
        0x000003f0:    fa0a1eff    ....    DCD    4194967295
        0x000003f4:    05f5e0ff    ....    DCD    99999999
        0x000003f8:    fd050f7f    ....    DCD    4244967295
        0x000003fc:    02faf07f    ....    DCD    49999999
        0x00000400:    fe8287c0    ....    DCD    4269967296
        0x00000404:    ffe795ff    ....    DCD    4293367295
        0x00000408:    00cc77bf    .w..    DCD    13399999
        0x0000040c:    00000201    ....    DCD    513
        0x00000410:    0008d66f    o...    DCD    579183
        0x00000414:    04020201    ....    DCD    67240449
        0x00000418:    0000c22e    ....    DCD    49710
    $t
    i.CLK_EnableXtalRC
    CLK_EnableXtalRC
        0x0000041c:    4902        .I      LDR      r1,[pc,#8] ; [0x428] = 0x50000200
        0x0000041e:    680a        .h      LDR      r2,[r1,#0]
        0x00000420:    4302        .C      ORRS     r2,r2,r0
        0x00000422:    600a        .`      STR      r2,[r1,#0]
        0x00000424:    4770        pG      BX       lr
    $d
        0x00000426:    0000        ..      DCW    0
        0x00000428:    50000200    ...P    DCD    1342177792
    $t
    i.CLK_GetCPUFreq
    CLK_GetCPUFreq
        0x0000042c:    b510        ..      PUSH     {r4,lr}
        0x0000042e:    f000fe9f    ....    BL       SystemCoreClockUpdate ; 0x1170
        0x00000432:    4801        .H      LDR      r0,[pc,#4] ; [0x438] = 0x20000000
        0x00000434:    6800        .h      LDR      r0,[r0,#0]
        0x00000436:    bd10        ..      POP      {r4,pc}
    $d
        0x00000438:    20000000    ...     DCD    536870912
    $t
    i.CLK_GetHCLKFreq
    CLK_GetHCLKFreq
        0x0000043c:    b510        ..      PUSH     {r4,lr}
        0x0000043e:    f000fe97    ....    BL       SystemCoreClockUpdate ; 0x1170
        0x00000442:    4801        .H      LDR      r0,[pc,#4] ; [0x448] = 0x20000000
        0x00000444:    6800        .h      LDR      r0,[r0,#0]
        0x00000446:    bd10        ..      POP      {r4,pc}
    $d
        0x00000448:    20000000    ...     DCD    536870912
    $t
    i.CLK_GetHXTFreq
    CLK_GetHXTFreq
        0x0000044c:    4802        .H      LDR      r0,[pc,#8] ; [0x458] = 0x50000200
        0x0000044e:    6800        .h      LDR      r0,[r0,#0]
        0x00000450:    07c0        ..      LSLS     r0,r0,#31
        0x00000452:    d000        ..      BEQ      0x456 ; CLK_GetHXTFreq + 10
        0x00000454:    4801        .H      LDR      r0,[pc,#4] ; [0x45c] = 0xb71b00
        0x00000456:    4770        pG      BX       lr
    $d
        0x00000458:    50000200    ...P    DCD    1342177792
        0x0000045c:    00b71b00    ....    DCD    12000000
    $t
    i.CLK_GetLXTFreq
    CLK_GetLXTFreq
        0x00000460:    4804        .H      LDR      r0,[pc,#16] ; [0x474] = 0x50000200
        0x00000462:    6800        .h      LDR      r0,[r0,#0]
        0x00000464:    0780        ..      LSLS     r0,r0,#30
        0x00000466:    d502        ..      BPL      0x46e ; CLK_GetLXTFreq + 14
        0x00000468:    2001        .       MOVS     r0,#1
        0x0000046a:    03c0        ..      LSLS     r0,r0,#15
        0x0000046c:    4770        pG      BX       lr
        0x0000046e:    2000        .       MOVS     r0,#0
        0x00000470:    4770        pG      BX       lr
    $d
        0x00000472:    0000        ..      DCW    0
        0x00000474:    50000200    ...P    DCD    1342177792
    $t
    i.CLK_GetPCLKFreq
    CLK_GetPCLKFreq
        0x00000478:    b510        ..      PUSH     {r4,lr}
        0x0000047a:    f000fe79    ..y.    BL       SystemCoreClockUpdate ; 0x1170
        0x0000047e:    4801        .H      LDR      r0,[pc,#4] ; [0x484] = 0x20000000
        0x00000480:    6800        .h      LDR      r0,[r0,#0]
        0x00000482:    bd10        ..      POP      {r4,pc}
    $d
        0x00000484:    20000000    ...     DCD    536870912
    $t
    i.CLK_GetPLLClockFreq
    CLK_GetPLLClockFreq
        0x00000488:    b508        ..      PUSH     {r3,lr}
        0x0000048a:    a011        ..      ADR      r0,{pc}+0x46 ; 0x4d0
        0x0000048c:    6800        .h      LDR      r0,[r0,#0]
        0x0000048e:    9000        ..      STR      r0,[sp,#0]
        0x00000490:    4810        .H      LDR      r0,[pc,#64] ; [0x4d4] = 0x50000200
        0x00000492:    6a01        .j      LDR      r1,[r0,#0x20]
        0x00000494:    1300        ..      ASRS     r0,r0,#12
        0x00000496:    4201        .B      TST      r1,r0
        0x00000498:    d001        ..      BEQ      0x49e ; CLK_GetPLLClockFreq + 22
        0x0000049a:    2000        .       MOVS     r0,#0
        0x0000049c:    bd08        ..      POP      {r3,pc}
        0x0000049e:    0308        ..      LSLS     r0,r1,#12
        0x000004a0:    d501        ..      BPL      0x4a6 ; CLK_GetPLLClockFreq + 30
        0x000004a2:    480d        .H      LDR      r0,[pc,#52] ; [0x4d8] = 0x1518000
        0x000004a4:    e000        ..      B        0x4a8 ; CLK_GetPLLClockFreq + 32
        0x000004a6:    480d        .H      LDR      r0,[pc,#52] ; [0x4dc] = 0xb71b00
        0x000004a8:    038a        ..      LSLS     r2,r1,#14
        0x000004aa:    d4f7        ..      BMI      0x49c ; CLK_GetPLLClockFreq + 20
        0x000004ac:    040a        ..      LSLS     r2,r1,#16
        0x000004ae:    0f92        ..      LSRS     r2,r2,#30
        0x000004b0:    466b        kF      MOV      r3,sp
        0x000004b2:    5c9b        .\      LDRB     r3,[r3,r2]
        0x000004b4:    05ca        ..      LSLS     r2,r1,#23
        0x000004b6:    0489        ..      LSLS     r1,r1,#18
        0x000004b8:    0dd2        ..      LSRS     r2,r2,#23
        0x000004ba:    0ec9        ..      LSRS     r1,r1,#27
        0x000004bc:    1c89        ..      ADDS     r1,r1,#2
        0x000004be:    0880        ..      LSRS     r0,r0,#2
        0x000004c0:    1c92        ..      ADDS     r2,r2,#2
        0x000004c2:    4359        YC      MULS     r1,r3,r1
        0x000004c4:    4350        PC      MULS     r0,r2,r0
        0x000004c6:    f7fffe39    ..9.    BL       __aeabi_uidiv ; 0x13c
        0x000004ca:    0080        ..      LSLS     r0,r0,#2
        0x000004cc:    bd08        ..      POP      {r3,pc}
    $d
        0x000004ce:    0000        ..      DCW    0
        0x000004d0:    04020201    ....    DCD    67240449
        0x000004d4:    50000200    ...P    DCD    1342177792
        0x000004d8:    01518000    ..Q.    DCD    22118400
        0x000004dc:    00b71b00    ....    DCD    12000000
    $t
    i.CLK_GetPLLClockFreq
    CLK_GetPLLClockFreq
        0x000004e0:    b508        ..      PUSH     {r3,lr}
        0x000004e2:    a011        ..      ADR      r0,{pc}+0x46 ; 0x528
        0x000004e4:    6800        .h      LDR      r0,[r0,#0]
        0x000004e6:    9000        ..      STR      r0,[sp,#0]
        0x000004e8:    4810        .H      LDR      r0,[pc,#64] ; [0x52c] = 0x50000200
        0x000004ea:    6a01        .j      LDR      r1,[r0,#0x20]
        0x000004ec:    1300        ..      ASRS     r0,r0,#12
        0x000004ee:    4201        .B      TST      r1,r0
        0x000004f0:    d001        ..      BEQ      0x4f6 ; CLK_GetPLLClockFreq + 22
        0x000004f2:    2000        .       MOVS     r0,#0
        0x000004f4:    bd08        ..      POP      {r3,pc}
        0x000004f6:    0308        ..      LSLS     r0,r1,#12
        0x000004f8:    d501        ..      BPL      0x4fe ; CLK_GetPLLClockFreq + 30
        0x000004fa:    480d        .H      LDR      r0,[pc,#52] ; [0x530] = 0x1518000
        0x000004fc:    e000        ..      B        0x500 ; CLK_GetPLLClockFreq + 32
        0x000004fe:    480d        .H      LDR      r0,[pc,#52] ; [0x534] = 0xb71b00
        0x00000500:    038a        ..      LSLS     r2,r1,#14
        0x00000502:    d4f7        ..      BMI      0x4f4 ; CLK_GetPLLClockFreq + 20
        0x00000504:    040a        ..      LSLS     r2,r1,#16
        0x00000506:    0f92        ..      LSRS     r2,r2,#30
        0x00000508:    466b        kF      MOV      r3,sp
        0x0000050a:    5c9b        .\      LDRB     r3,[r3,r2]
        0x0000050c:    05ca        ..      LSLS     r2,r1,#23
        0x0000050e:    0489        ..      LSLS     r1,r1,#18
        0x00000510:    0dd2        ..      LSRS     r2,r2,#23
        0x00000512:    0ec9        ..      LSRS     r1,r1,#27
        0x00000514:    1c89        ..      ADDS     r1,r1,#2
        0x00000516:    0880        ..      LSRS     r0,r0,#2
        0x00000518:    1c92        ..      ADDS     r2,r2,#2
        0x0000051a:    4359        YC      MULS     r1,r3,r1
        0x0000051c:    4350        PC      MULS     r0,r2,r0
        0x0000051e:    f7fffe0d    ....    BL       __aeabi_uidiv ; 0x13c
        0x00000522:    0080        ..      LSLS     r0,r0,#2
        0x00000524:    bd08        ..      POP      {r3,pc}
    $d
        0x00000526:    0000        ..      DCW    0
        0x00000528:    04020201    ....    DCD    67240449
        0x0000052c:    50000200    ...P    DCD    1342177792
        0x00000530:    01518000    ..Q.    DCD    22118400
        0x00000534:    00b71b00    ....    DCD    12000000
    $t
    i.CLK_SetCoreClock
    CLK_SetCoreClock
        0x00000538:    b5f8        ..      PUSH     {r3-r7,lr}
        0x0000053a:    492e        .I      LDR      r1,[pc,#184] ; [0x5f4] = 0x50000200
        0x0000053c:    68cc        .h      LDR      r4,[r1,#0xc]
        0x0000053e:    2210        ."      MOVS     r2,#0x10
        0x00000540:    4b2d        -K      LDR      r3,[pc,#180] ; [0x5f8] = 0x44aa200
        0x00000542:    4014        .@      ANDS     r4,r4,r2
        0x00000544:    4298        .B      CMP      r0,r3
        0x00000546:    d901        ..      BLS      0x54c ; CLK_SetCoreClock + 20
        0x00000548:    4618        .F      MOV      r0,r3
        0x0000054a:    e003        ..      B        0x554 ; CLK_SetCoreClock + 28
        0x0000054c:    4a2b        +J      LDR      r2,[pc,#172] ; [0x5fc] = 0x17d7840
        0x0000054e:    4290        .B      CMP      r0,r2
        0x00000550:    d200        ..      BCS      0x554 ; CLK_SetCoreClock + 28
        0x00000552:    4610        .F      MOV      r0,r2
        0x00000554:    4a2a        *J      LDR      r2,[pc,#168] ; [0x600] = 0x2faf080
        0x00000556:    2501        .%      MOVS     r5,#1
        0x00000558:    4290        .B      CMP      r0,r2
        0x0000055a:    d901        ..      BLS      0x560 ; CLK_SetCoreClock + 40
        0x0000055c:    2650        P&      MOVS     r6,#0x50
        0x0000055e:    e000        ..      B        0x562 ; CLK_SetCoreClock + 42
        0x00000560:    2600        .&      MOVS     r6,#0
        0x00000562:    4a28        (J      LDR      r2,[pc,#160] ; [0x604] = 0x5000c000
        0x00000564:    6992        .i      LDR      r2,[r2,#0x18]
        0x00000566:    2750        P'      MOVS     r7,#0x50
        0x00000568:    433a        :C      ORRS     r2,r2,r7
        0x0000056a:    4f26        &O      LDR      r7,[pc,#152] ; [0x604] = 0x5000c000
        0x0000056c:    61ba        .a      STR      r2,[r7,#0x18]
        0x0000056e:    680a        .h      LDR      r2,[r1,#0]
        0x00000570:    2704        .'      MOVS     r7,#4
        0x00000572:    433a        :C      ORRS     r2,r2,r7
        0x00000574:    600a        .`      STR      r2,[r1,#0]
        0x00000576:    68ca        .h      LDR      r2,[r1,#0xc]
        0x00000578:    06d2        ..      LSLS     r2,r2,#27
        0x0000057a:    d5fc        ..      BPL      0x576 ; CLK_SetCoreClock + 62
        0x0000057c:    491d        .I      LDR      r1,[pc,#116] ; [0x5f4] = 0x50000200
        0x0000057e:    690a        .i      LDR      r2,[r1,#0x10]
        0x00000580:    2707        .'      MOVS     r7,#7
        0x00000582:    433a        :C      ORRS     r2,r2,r7
        0x00000584:    610a        .a      STR      r2,[r1,#0x10]
        0x00000586:    6a0a        .j      LDR      r2,[r1,#0x20]
        0x00000588:    01cf        ..      LSLS     r7,r1,#7
        0x0000058a:    433a        :C      ORRS     r2,r2,r7
        0x0000058c:    620a        .b      STR      r2,[r1,#0x20]
        0x0000058e:    68c9        .h      LDR      r1,[r1,#0xc]
        0x00000590:    07c9        ..      LSLS     r1,r1,#31
        0x00000592:    d00e        ..      BEQ      0x5b2 ; CLK_SetCoreClock + 122
        0x00000594:    4298        .B      CMP      r0,r3
        0x00000596:    d106        ..      BNE      0x5a6 ; CLK_SetCoreClock + 110
        0x00000598:    0041        A.      LSLS     r1,r0,#1
        0x0000059a:    2000        .       MOVS     r0,#0
        0x0000059c:    f7fffe72    ..r.    BL       CLK_EnablePLL ; 0x284
        0x000005a0:    4607        .F      MOV      r7,r0
        0x000005a2:    2502        .%      MOVS     r5,#2
        0x000005a4:    e00f        ..      B        0x5c6 ; CLK_SetCoreClock + 142
        0x000005a6:    4601        .F      MOV      r1,r0
        0x000005a8:    2000        .       MOVS     r0,#0
        0x000005aa:    f7fffe6b    ..k.    BL       CLK_EnablePLL ; 0x284
        0x000005ae:    4607        .F      MOV      r7,r0
        0x000005b0:    e009        ..      B        0x5c6 ; CLK_SetCoreClock + 142
        0x000005b2:    4601        .F      MOV      r1,r0
        0x000005b4:    2001        .       MOVS     r0,#1
        0x000005b6:    04c0        ..      LSLS     r0,r0,#19
        0x000005b8:    f7fffe64    ..d.    BL       CLK_EnablePLL ; 0x284
        0x000005bc:    4607        .F      MOV      r7,r0
        0x000005be:    480d        .H      LDR      r0,[pc,#52] ; [0x5f4] = 0x50000200
        0x000005c0:    68c4        .h      LDR      r4,[r0,#0xc]
        0x000005c2:    2010        .       MOVS     r0,#0x10
        0x000005c4:    4004        .@      ANDS     r4,r4,r0
        0x000005c6:    480f        .H      LDR      r0,[pc,#60] ; [0x604] = 0x5000c000
        0x000005c8:    6981        .i      LDR      r1,[r0,#0x18]
        0x000005ca:    2250        P"      MOVS     r2,#0x50
        0x000005cc:    4391        .C      BICS     r1,r1,r2
        0x000005ce:    4331        1C      ORRS     r1,r1,r6
        0x000005d0:    6181        .a      STR      r1,[r0,#0x18]
        0x000005d2:    1e69        i.      SUBS     r1,r5,#1
        0x000005d4:    2002        .       MOVS     r0,#2
        0x000005d6:    f000f817    ....    BL       CLK_SetHCLK ; 0x608
        0x000005da:    2c00        .,      CMP      r4,#0
        0x000005dc:    d104        ..      BNE      0x5e8 ; CLK_SetCoreClock + 176
        0x000005de:    4805        .H      LDR      r0,[pc,#20] ; [0x5f4] = 0x50000200
        0x000005e0:    6802        .h      LDR      r2,[r0,#0]
        0x000005e2:    2104        .!      MOVS     r1,#4
        0x000005e4:    438a        .C      BICS     r2,r2,r1
        0x000005e6:    6002        .`      STR      r2,[r0,#0]
        0x000005e8:    4629        )F      MOV      r1,r5
        0x000005ea:    4638        8F      MOV      r0,r7
        0x000005ec:    f7fffda6    ....    BL       __aeabi_uidiv ; 0x13c
        0x000005f0:    bdf8        ..      POP      {r3-r7,pc}
    $d
        0x000005f2:    0000        ..      DCW    0
        0x000005f4:    50000200    ...P    DCD    1342177792
        0x000005f8:    044aa200    ..J.    DCD    72000000
        0x000005fc:    017d7840    @x}.    DCD    25000000
        0x00000600:    02faf080    ....    DCD    50000000
        0x00000604:    5000c000    ...P    DCD    1342226432
    $t
    i.CLK_SetHCLK
    CLK_SetHCLK
        0x00000608:    b570        p.      PUSH     {r4-r6,lr}
        0x0000060a:    4c10        .L      LDR      r4,[pc,#64] ; [0x64c] = 0x50000200
        0x0000060c:    68e5        .h      LDR      r5,[r4,#0xc]
        0x0000060e:    2610        .&      MOVS     r6,#0x10
        0x00000610:    6822        "h      LDR      r2,[r4,#0]
        0x00000612:    4035        5@      ANDS     r5,r5,r6
        0x00000614:    2304        .#      MOVS     r3,#4
        0x00000616:    431a        .C      ORRS     r2,r2,r3
        0x00000618:    6022        "`      STR      r2,[r4,#0]
        0x0000061a:    68e2        .h      LDR      r2,[r4,#0xc]
        0x0000061c:    06d2        ..      LSLS     r2,r2,#27
        0x0000061e:    d5fc        ..      BPL      0x61a ; CLK_SetHCLK + 18
        0x00000620:    6922        "i      LDR      r2,[r4,#0x10]
        0x00000622:    2307        .#      MOVS     r3,#7
        0x00000624:    431a        .C      ORRS     r2,r2,r3
        0x00000626:    6122        "a      STR      r2,[r4,#0x10]
        0x00000628:    69a2        .i      LDR      r2,[r4,#0x18]
        0x0000062a:    0912        ..      LSRS     r2,r2,#4
        0x0000062c:    0112        ..      LSLS     r2,r2,#4
        0x0000062e:    430a        .C      ORRS     r2,r2,r1
        0x00000630:    61a2        .a      STR      r2,[r4,#0x18]
        0x00000632:    6921        !i      LDR      r1,[r4,#0x10]
        0x00000634:    4399        .C      BICS     r1,r1,r3
        0x00000636:    4301        .C      ORRS     r1,r1,r0
        0x00000638:    6121        !a      STR      r1,[r4,#0x10]
        0x0000063a:    f000fd99    ....    BL       SystemCoreClockUpdate ; 0x1170
        0x0000063e:    2d00        .-      CMP      r5,#0
        0x00000640:    d102        ..      BNE      0x648 ; CLK_SetHCLK + 64
        0x00000642:    6820         h      LDR      r0,[r4,#0]
        0x00000644:    43b0        .C      BICS     r0,r0,r6
        0x00000646:    6020         `      STR      r0,[r4,#0]
        0x00000648:    bd70        p.      POP      {r4-r6,pc}
    $d
        0x0000064a:    0000        ..      DCW    0
        0x0000064c:    50000200    ...P    DCD    1342177792
    $t
    i.CLK_SetModuleClock
    CLK_SetModuleClock
        0x00000650:    b5f0        ..      PUSH     {r4-r7,lr}
        0x00000652:    4b29        )K      LDR      r3,[pc,#164] ; [0x6f8] = 0x1ff0
        0x00000654:    b086        ..      SUB      sp,sp,#0x18
        0x00000656:    461c        .F      MOV      r4,r3
        0x00000658:    3408        .4      ADDS     r4,r4,#8
        0x0000065a:    ccf0        ..      LDM      r4,{r4-r7}
        0x0000065c:    9400        ..      STR      r4,[sp,#0]
        0x0000065e:    ac01        ..      ADD      r4,sp,#4
        0x00000660:    c4e0        ..      STM      r4!,{r5-r7}
        0x00000662:    cb18        ..      LDM      r3,{r3,r4}
        0x00000664:    9304        ..      STR      r3,[sp,#0x10]
        0x00000666:    0e43        C.      LSRS     r3,r0,#25
        0x00000668:    9405        ..      STR      r4,[sp,#0x14]
        0x0000066a:    075b        [.      LSLS     r3,r3,#29
        0x0000066c:    d02d        -.      BEQ      0x6ca ; CLK_SetModuleClock + 122
        0x0000066e:    0083        ..      LSLS     r3,r0,#2
        0x00000670:    0f9b        ..      LSRS     r3,r3,#30
        0x00000672:    009b        ..      LSLS     r3,r3,#2
        0x00000674:    466c        lF      MOV      r4,sp
        0x00000676:    58e3        .X      LDR      r3,[r4,r3]
        0x00000678:    4c20         L      LDR      r4,[pc,#128] ; [0x6fc] = 0x50000210
        0x0000067a:    191b        ..      ADDS     r3,r3,r4
        0x0000067c:    0104        ..      LSLS     r4,r0,#4
        0x0000067e:    0f65        e.      LSRS     r5,r4,#29
        0x00000680:    01c4        ..      LSLS     r4,r0,#7
        0x00000682:    0ee4        ..      LSRS     r4,r4,#27
        0x00000684:    40a5        .@      LSLS     r5,r5,r4
        0x00000686:    681c        .h      LDR      r4,[r3,#0]
        0x00000688:    43ac        .C      BICS     r4,r4,r5
        0x0000068a:    430c        .C      ORRS     r4,r4,r1
        0x0000068c:    601c        .`      STR      r4,[r3,#0]
        0x0000068e:    4b1b        .K      LDR      r3,[pc,#108] ; [0x6fc] = 0x50000210
        0x00000690:    4c1b        .L      LDR      r4,[pc,#108] ; [0x700] = 0x57c00014
        0x00000692:    3b10        .;      SUBS     r3,r3,#0x10
        0x00000694:    42a0        .B      CMP      r0,r4
        0x00000696:    d103        ..      BNE      0x6a0 ; CLK_SetModuleClock + 80
        0x00000698:    69dd        .i      LDR      r5,[r3,#0x1c]
        0x0000069a:    24ff        .$      MOVS     r4,#0xff
        0x0000069c:    3401        .4      ADDS     r4,#1
        0x0000069e:    e010        ..      B        0x6c2 ; CLK_SetModuleClock + 114
        0x000006a0:    4c18        .L      LDR      r4,[pc,#96] ; [0x704] = 0x57e00015
        0x000006a2:    42a0        .B      CMP      r0,r4
        0x000006a4:    d107        ..      BNE      0x6b6 ; CLK_SetModuleClock + 102
        0x000006a6:    69dc        .i      LDR      r4,[r3,#0x1c]
        0x000006a8:    2501        .%      MOVS     r5,#1
        0x000006aa:    026d        m.      LSLS     r5,r5,#9
        0x000006ac:    43ac        .C      BICS     r4,r4,r5
        0x000006ae:    4029        )@      ANDS     r1,r1,r5
        0x000006b0:    430c        .C      ORRS     r4,r4,r1
        0x000006b2:    61dc        .a      STR      r4,[r3,#0x1c]
        0x000006b4:    e009        ..      B        0x6ca ; CLK_SetModuleClock + 122
        0x000006b6:    4c14        .L      LDR      r4,[pc,#80] ; [0x708] = 0x66400016
        0x000006b8:    42a0        .B      CMP      r0,r4
        0x000006ba:    d106        ..      BNE      0x6ca ; CLK_SetModuleClock + 122
        0x000006bc:    69dd        .i      LDR      r5,[r3,#0x1c]
        0x000006be:    2401        .$      MOVS     r4,#1
        0x000006c0:    02a4        ..      LSLS     r4,r4,#10
        0x000006c2:    43a5        .C      BICS     r5,r5,r4
        0x000006c4:    4021        !@      ANDS     r1,r1,r4
        0x000006c6:    430d        .C      ORRS     r5,r5,r1
        0x000006c8:    61dd        .a      STR      r5,[r3,#0x1c]
        0x000006ca:    0a83        ..      LSRS     r3,r0,#10
        0x000006cc:    0619        ..      LSLS     r1,r3,#24
        0x000006ce:    0e09        ..      LSRS     r1,r1,#24
        0x000006d0:    d00f        ..      BEQ      0x6f2 ; CLK_SetModuleClock + 162
        0x000006d2:    0301        ..      LSLS     r1,r0,#12
        0x000006d4:    0f89        ..      LSRS     r1,r1,#30
        0x000006d6:    0089        ..      LSLS     r1,r1,#2
        0x000006d8:    ac04        ..      ADD      r4,sp,#0x10
        0x000006da:    5861        aX      LDR      r1,[r4,r1]
        0x000006dc:    4c07        .L      LDR      r4,[pc,#28] ; [0x6fc] = 0x50000210
        0x000006de:    0580        ..      LSLS     r0,r0,#22
        0x000006e0:    3408        .4      ADDS     r4,r4,#8
        0x000006e2:    1909        ..      ADDS     r1,r1,r4
        0x000006e4:    b2db        ..      UXTB     r3,r3
        0x000006e6:    0ec0        ..      LSRS     r0,r0,#27
        0x000006e8:    4083        .@      LSLS     r3,r3,r0
        0x000006ea:    6808        .h      LDR      r0,[r1,#0]
        0x000006ec:    4398        .C      BICS     r0,r0,r3
        0x000006ee:    4310        .C      ORRS     r0,r0,r2
        0x000006f0:    6008        .`      STR      r0,[r1,#0]
        0x000006f2:    b006        ..      ADD      sp,sp,#0x18
        0x000006f4:    bdf0        ..      POP      {r4-r7,pc}
    $d
        0x000006f6:    0000        ..      DCW    0
        0x000006f8:    00001ff0    ....    DCD    8176
        0x000006fc:    50000210    ...P    DCD    1342177808
        0x00000700:    57c00014    ...W    DCD    1472200724
        0x00000704:    57e00015    ...W    DCD    1474297877
        0x00000708:    66400016    ..@f    DCD    1715470358
    $t
    i.CLK_WaitClockReady
    CLK_WaitClockReady
        0x0000070c:    b510        ..      PUSH     {r4,lr}
        0x0000070e:    4604        .F      MOV      r4,r0
        0x00000710:    4907        .I      LDR      r1,[pc,#28] ; [0x730] = 0x124f80
        0x00000712:    4b08        .K      LDR      r3,[pc,#32] ; [0x734] = 0x50000200
        0x00000714:    e005        ..      B        0x722 ; CLK_WaitClockReady + 22
        0x00000716:    460a        .F      MOV      r2,r1
        0x00000718:    1e49        I.      SUBS     r1,r1,#1
        0x0000071a:    2a00        .*      CMP      r2,#0
        0x0000071c:    dc01        ..      BGT      0x722 ; CLK_WaitClockReady + 22
        0x0000071e:    2000        .       MOVS     r0,#0
        0x00000720:    bd10        ..      POP      {r4,pc}
        0x00000722:    68da        .h      LDR      r2,[r3,#0xc]
        0x00000724:    4620         F      MOV      r0,r4
        0x00000726:    4390        .C      BICS     r0,r0,r2
        0x00000728:    d1f5        ..      BNE      0x716 ; CLK_WaitClockReady + 10
        0x0000072a:    2001        .       MOVS     r0,#1
        0x0000072c:    bd10        ..      POP      {r4,pc}
    $d
        0x0000072e:    0000        ..      DCW    0
        0x00000730:    00124f80    .O..    DCD    1200000
        0x00000734:    50000200    ...P    DCD    1342177792
    $t
    i.Check_SPI_Mode_Record
    Check_SPI_Mode_Record
        0x00000738:    b570        p.      PUSH     {r4-r6,lr}
        0x0000073a:    4c20         L      LDR      r4,[pc,#128] ; [0x7bc] = 0x2000002c
        0x0000073c:    2000        .       MOVS     r0,#0
        0x0000073e:    4622        "F      MOV      r2,r4
        0x00000740:    320c        .2      ADDS     r2,r2,#0xc
        0x00000742:    2104        .!      MOVS     r1,#4
        0x00000744:    6160        `a      STR      r0,[r4,#0x14]
        0x00000746:    f000f93f    ..?.    BL       DataFlashRead ; 0x9c8
        0x0000074a:    4625        %F      MOV      r5,r4
        0x0000074c:    350c        .5      ADDS     r5,r5,#0xc
        0x0000074e:    491c        .I      LDR      r1,[pc,#112] ; [0x7c0] = 0x1f92
        0x00000750:    a01c        ..      ADR      r0,{pc}+0x74 ; 0x7c4
        0x00000752:    682a        *h      LDR      r2,[r5,#0]
        0x00000754:    f000ff98    ....    BL       __0printf$8 ; 0x1688
        0x00000758:    682a        *h      LDR      r2,[r5,#0]
        0x0000075a:    2a04        .*      CMP      r2,#4
        0x0000075c:    d007        ..      BEQ      0x76e ; Check_SPI_Mode_Record + 54
        0x0000075e:    2a02        .*      CMP      r2,#2
        0x00000760:    d005        ..      BEQ      0x76e ; Check_SPI_Mode_Record + 54
        0x00000762:    481c        .H      LDR      r0,[pc,#112] ; [0x7d4] = 0x802
        0x00000764:    4282        .B      CMP      r2,r0
        0x00000766:    d002        ..      BEQ      0x76e ; Check_SPI_Mode_Record + 54
        0x00000768:    1c80        ..      ADDS     r0,r0,#2
        0x0000076a:    4282        .B      CMP      r2,r0
        0x0000076c:    d106        ..      BNE      0x77c ; Check_SPI_Mode_Record + 68
        0x0000076e:    4613        .F      MOV      r3,r2
        0x00000770:    4913        .I      LDR      r1,[pc,#76] ; [0x7c0] = 0x1f92
        0x00000772:    a019        ..      ADR      r0,{pc}+0x66 ; 0x7d8
        0x00000774:    6122        "a      STR      r2,[r4,#0x10]
        0x00000776:    f000ff87    ....    BL       __0printf$8 ; 0x1688
        0x0000077a:    bd70        p.      POP      {r4-r6,pc}
        0x0000077c:    2004        .       MOVS     r0,#4
        0x0000077e:    6028        (`      STR      r0,[r5,#0]
        0x00000780:    4a0e        .J      LDR      r2,[pc,#56] ; [0x7bc] = 0x2000002c
        0x00000782:    4601        .F      MOV      r1,r0
        0x00000784:    6120         a      STR      r0,[r4,#0x10]
        0x00000786:    320c        .2      ADDS     r2,r2,#0xc
        0x00000788:    6960        `i      LDR      r0,[r4,#0x14]
        0x0000078a:    f000f95f    .._.    BL       DataFlashWrite ; 0xa4c
        0x0000078e:    490c        .I      LDR      r1,[pc,#48] ; [0x7c0] = 0x1f92
        0x00000790:    a01e        ..      ADR      r0,{pc}+0x7c ; 0x80c
        0x00000792:    682a        *h      LDR      r2,[r5,#0]
        0x00000794:    f000ff78    ..x.    BL       __0printf$8 ; 0x1688
        0x00000798:    4a08        .J      LDR      r2,[pc,#32] ; [0x7bc] = 0x2000002c
        0x0000079a:    2104        .!      MOVS     r1,#4
        0x0000079c:    320c        .2      ADDS     r2,r2,#0xc
        0x0000079e:    6960        `i      LDR      r0,[r4,#0x14]
        0x000007a0:    f000f912    ....    BL       DataFlashRead ; 0x9c8
        0x000007a4:    4906        .I      LDR      r1,[pc,#24] ; [0x7c0] = 0x1f92
        0x000007a6:    a025        %.      ADR      r0,{pc}+0x96 ; 0x83c
        0x000007a8:    6922        "i      LDR      r2,[r4,#0x10]
        0x000007aa:    f000ff6d    ..m.    BL       __0printf$8 ; 0x1688
        0x000007ae:    4904        .I      LDR      r1,[pc,#16] ; [0x7c0] = 0x1f92
        0x000007b0:    a025        %.      ADR      r0,{pc}+0x98 ; 0x848
        0x000007b2:    682a        *h      LDR      r2,[r5,#0]
        0x000007b4:    f000ff68    ..h.    BL       __0printf$8 ; 0x1688
        0x000007b8:    bd70        p.      POP      {r4-r6,pc}
    $d
        0x000007ba:    0000        ..      DCW    0
        0x000007bc:    2000002c    ,..     DCD    536870956
        0x000007c0:    00001f92    ....    DCD    8082
        0x000007c4:    5b3a7325    %s:[    DCD    1530557221
        0x000007c8:    303a5d30    0]:0    DCD    809131312
        0x000007cc:    34302578    x%04    DCD    875570552
        0x000007d0:    000a0d58    X...    DCD    658776
        0x000007d4:    00000802    ....    DCD    2050
        0x000007d8:    523a7325    %s:R    DCD    1379562277
        0x000007dc:    20646165    ead     DCD    543449445
        0x000007e0:    20495053    SPI     DCD    541675603
        0x000007e4:    65646f6d    mode    DCD    1701080941
        0x000007e8:    61657220     rea    DCD    1634038304
        0x000007ec:    303a7964    dy:0    DCD    809138532
        0x000007f0:    34302578    x%04    DCD    875570552
        0x000007f4:    75202c58    X, u    DCD    1965042776
        0x000007f8:    50533233    32SP    DCD    1347629619
        0x000007fc:    646f4d49    IMod    DCD    1685015881
        0x00000800:    78303a65    e:0x    DCD    2016426597
        0x00000804:    58343025    %04X    DCD    1479815205
        0x00000808:    00000a0d    ....    DCD    2573
        0x0000080c:    4e3a7325    %s:N    DCD    1312453413
        0x00000810:    6320544f    OT c    DCD    1663063119
        0x00000814:    6572726f    orre    DCD    1701999215
        0x00000818:    53207463    ct S    DCD    1394635875
        0x0000081c:    6d204950    PI m    DCD    1830832464
        0x00000820:    2c65646f    ode,    DCD    744842351
        0x00000824:    20746573    set     DCD    544499059
        0x00000828:    64206f74    to d    DCD    1679847284
        0x0000082c:    75616665    efau    DCD    1969317477
        0x00000830:    303a746c    lt:0    DCD    809137260
        0x00000834:    34302578    x%04    DCD    875570552
        0x00000838:    000a0d58    X...    DCD    658776
        0x0000083c:    303a7325    %s:0    DCD    809136933
        0x00000840:    34302578    x%04    DCD    875570552
        0x00000844:    000a0d58    X...    DCD    658776
        0x00000848:    523a7325    %s:R    DCD    1379562277
        0x0000084c:    20646165    ead     DCD    543449445
        0x00000850:    65646f6d    mode    DCD    1701080941
        0x00000854:    3a5d305b    [0]:    DCD    979185755
        0x00000858:    30257830    0x%0    DCD    807761968
        0x0000085c:    0a0d5834    4X..    DCD    168646708
        0x00000860:    00000000    ....    DCD    0
    $t
    i.DataFlashInit
    DataFlashInit
        0x00000864:    b57c        |.      PUSH     {r2-r6,lr}
        0x00000866:    f000fbed    ....    BL       SYS_UnlockReg ; 0x1044
        0x0000086a:    f000f98b    ....    BL       FMC_Open ; 0xb84
        0x0000086e:    2102        .!      MOVS     r1,#2
        0x00000870:    4668        hF      MOV      r0,sp
        0x00000872:    f000f9af    ....    BL       FMC_ReadConfig ; 0xbd4
        0x00000876:    2800        .(      CMP      r0,#0
        0x00000878:    da03        ..      BGE      0x882 ; DataFlashInit + 30
        0x0000087a:    4927        'I      LDR      r1,[pc,#156] ; [0x918] = 0x1fb1
        0x0000087c:    a027        '.      ADR      r0,{pc}+0xa0 ; 0x91c
        0x0000087e:    f000ff03    ....    BL       __0printf$8 ; 0x1688
        0x00000882:    9800        ..      LDR      r0,[sp,#0]
        0x00000884:    263f        ?&      MOVS     r6,#0x3f
        0x00000886:    07c0        ..      LSLS     r0,r0,#31
        0x00000888:    02f6        ..      LSLS     r6,r6,#11
        0x0000088a:    2400        .$      MOVS     r4,#0
        0x0000088c:    4d26        &M      LDR      r5,[pc,#152] ; [0x928] = 0x50000100
        0x0000088e:    2800        .(      CMP      r0,#0
        0x00000890:    d102        ..      BNE      0x898 ; DataFlashInit + 52
        0x00000892:    9801        ..      LDR      r0,[sp,#4]
        0x00000894:    42b0        .B      CMP      r0,r6
        0x00000896:    d034        4.      BEQ      0x902 ; DataFlashInit + 158
        0x00000898:    4824        $H      LDR      r0,[pc,#144] ; [0x92c] = 0x5000c000
        0x0000089a:    6801        .h      LDR      r1,[r0,#0]
        0x0000089c:    2210        ."      MOVS     r2,#0x10
        0x0000089e:    4311        .C      ORRS     r1,r1,r2
        0x000008a0:    6001        .`      STR      r1,[r0,#0]
        0x000008a2:    9800        ..      LDR      r0,[sp,#0]
        0x000008a4:    2102        .!      MOVS     r1,#2
        0x000008a6:    0840        @.      LSRS     r0,r0,#1
        0x000008a8:    0040        @.      LSLS     r0,r0,#1
        0x000008aa:    9000        ..      STR      r0,[sp,#0]
        0x000008ac:    9601        ..      STR      r6,[sp,#4]
        0x000008ae:    4668        hF      MOV      r0,sp
        0x000008b0:    f000f9a8    ....    BL       FMC_WriteConfig ; 0xc04
        0x000008b4:    2800        .(      CMP      r0,#0
        0x000008b6:    da03        ..      BGE      0x8c0 ; DataFlashInit + 92
        0x000008b8:    4917        .I      LDR      r1,[pc,#92] ; [0x918] = 0x1fb1
        0x000008ba:    a01d        ..      ADR      r0,{pc}+0x76 ; 0x930
        0x000008bc:    f000fee4    ....    BL       __0printf$8 ; 0x1688
        0x000008c0:    2102        .!      MOVS     r1,#2
        0x000008c2:    4668        hF      MOV      r0,sp
        0x000008c4:    f000f986    ....    BL       FMC_ReadConfig ; 0xbd4
        0x000008c8:    9800        ..      LDR      r0,[sp,#0]
        0x000008ca:    07c0        ..      LSLS     r0,r0,#31
        0x000008cc:    d102        ..      BNE      0x8d4 ; DataFlashInit + 112
        0x000008ce:    9801        ..      LDR      r0,[sp,#4]
        0x000008d0:    42b0        .B      CMP      r0,r6
        0x000008d2:    d009        ..      BEQ      0x8e8 ; DataFlashInit + 132
        0x000008d4:    a019        ..      ADR      r0,{pc}+0x68 ; 0x93c
        0x000008d6:    f000fed7    ....    BL       __0printf$8 ; 0x1688
        0x000008da:    f000f931    ..1.    BL       FMC_Close ; 0xb40
        0x000008de:    602c        ,`      STR      r4,[r5,#0]
        0x000008e0:    490d        .I      LDR      r1,[pc,#52] ; [0x918] = 0x1fb1
        0x000008e2:    a01e        ..      ADR      r0,{pc}+0x7a ; 0x95c
        0x000008e4:    f000fed0    ....    BL       __0printf$8 ; 0x1688
        0x000008e8:    a01f        ..      ADR      r0,{pc}+0x80 ; 0x968
        0x000008ea:    f000fecd    ....    BL       __0printf$8 ; 0x1688
        0x000008ee:    f000f9e9    ....    BL       IsDebugFifoEmpty ; 0xcc4
        0x000008f2:    2800        .(      CMP      r0,#0
        0x000008f4:    d0fb        ..      BEQ      0x8ee ; DataFlashInit + 138
        0x000008f6:    2005        .       MOVS     r0,#5
        0x000008f8:    0700        ..      LSLS     r0,r0,#28
        0x000008fa:    6881        .h      LDR      r1,[r0,#8]
        0x000008fc:    2201        ."      MOVS     r2,#1
        0x000008fe:    4311        .C      ORRS     r1,r1,r2
        0x00000900:    6081        .`      STR      r1,[r0,#8]
        0x00000902:    f000f979    ..y.    BL       FMC_ReadDataFlashBaseAddr ; 0xbf8
        0x00000906:    4601        .F      MOV      r1,r0
        0x00000908:    a01a        ..      ADR      r0,{pc}+0x6c ; 0x974
        0x0000090a:    f000febd    ....    BL       __0printf$8 ; 0x1688
        0x0000090e:    f000f917    ....    BL       FMC_Close ; 0xb40
        0x00000912:    602c        ,`      STR      r4,[r5,#0]
        0x00000914:    bd7c        |.      POP      {r2-r6,pc}
    $d
        0x00000916:    0000        ..      DCW    0
        0x00000918:    00001fb1    ....    DCD    8113
        0x0000091c:    3a207325    %s :    DCD    975205157
        0x00000920:    0a0d3120     1..    DCD    168636704
        0x00000924:    00000000    ....    DCD    0
        0x00000928:    50000100    ...P    DCD    1342177536
        0x0000092c:    5000c000    ...P    DCD    1342226432
        0x00000930:    3a207325    %s :    DCD    975205157
        0x00000934:    0a0d3220     2..    DCD    168636960
        0x00000938:    00000000    ....    DCD    0
        0x0000093c:    6f727245    Erro    DCD    1869771333
        0x00000940:    50203a72    r: P    DCD    1344289394
        0x00000944:    72676f72    rogr    DCD    1919381362
        0x00000948:    43206d61    am C    DCD    1126198625
        0x0000094c:    69666e6f    onfi    DCD    1768320623
        0x00000950:    61462067    g Fa    DCD    1631985767
        0x00000954:    64656c69    iled    DCD    1684368489
        0x00000958:    00000a21    !...    DCD    2593
        0x0000095c:    3a207325    %s :    DCD    975205157
        0x00000960:    0a0d3320     3..    DCD    168637216
        0x00000964:    00000000    ....    DCD    0
        0x00000968:    70696863    chip    DCD    1885956195
        0x0000096c:    73657220     res    DCD    1936028192
        0x00000970:    000a7465    et..    DCD    685157
        0x00000974:    61746144    Data    DCD    1635017028
        0x00000978:    616c4620     Fla    DCD    1634485792
        0x0000097c:    42206873    sh B    DCD    1109420147
        0x00000980:    20657361    ase     DCD    543519585
        0x00000984:    72646441    Addr    DCD    1919181889
        0x00000988:    20737365    ess     DCD    544437093
        0x0000098c:    2578305b    [0x%    DCD    628633691
        0x00000990:    5d583830    08X]    DCD    1566062640
        0x00000994:    00000a0d    ....    DCD    2573
    $t
    i.DataFlashProgramPage
    DataFlashProgramPage
        0x00000998:    b5f0        ..      PUSH     {r4-r7,lr}
        0x0000099a:    2200        ."      MOVS     r2,#0
        0x0000099c:    2621        !&      MOVS     r6,#0x21
        0x0000099e:    4b09        .K      LDR      r3,[pc,#36] ; [0x9c4] = 0x5000c000
        0x000009a0:    2701        .'      MOVS     r7,#1
        0x000009a2:    0094        ..      LSLS     r4,r2,#2
        0x000009a4:    1825        %.      ADDS     r5,r4,r0
        0x000009a6:    590c        .Y      LDR      r4,[r1,r4]
        0x000009a8:    60de        .`      STR      r6,[r3,#0xc]
        0x000009aa:    605d        ]`      STR      r5,[r3,#4]
        0x000009ac:    609c        .`      STR      r4,[r3,#8]
        0x000009ae:    611f        .a      STR      r7,[r3,#0x10]
        0x000009b0:    f3bf8f6f    ..o.    ISB      
        0x000009b4:    691c        .i      LDR      r4,[r3,#0x10]
        0x000009b6:    2c00        .,      CMP      r4,#0
        0x000009b8:    d1fc        ..      BNE      0x9b4 ; DataFlashProgramPage + 28
        0x000009ba:    1c52        R.      ADDS     r2,r2,#1
        0x000009bc:    2a80        .*      CMP      r2,#0x80
        0x000009be:    d3f0        ..      BCC      0x9a2 ; DataFlashProgramPage + 10
        0x000009c0:    2000        .       MOVS     r0,#0
        0x000009c2:    bdf0        ..      POP      {r4-r7,pc}
    $d
        0x000009c4:    5000c000    ...P    DCD    1342226432
    $t
    i.DataFlashRead
    DataFlashRead
        0x000009c8:    b5fe        ..      PUSH     {r1-r7,lr}
        0x000009ca:    4617        .F      MOV      r7,r2
        0x000009cc:    9201        ..      STR      r2,[sp,#4]
        0x000009ce:    223f        ?"      MOVS     r2,#0x3f
        0x000009d0:    02d2        ..      LSLS     r2,r2,#11
        0x000009d2:    460e        .F      MOV      r6,r1
        0x000009d4:    1885        ..      ADDS     r5,r0,r2
        0x000009d6:    f000fb35    ..5.    BL       SYS_UnlockReg ; 0x1044
        0x000009da:    f000f8d3    ....    BL       FMC_Open ; 0xb84
        0x000009de:    4911        .I      LDR      r1,[pc,#68] ; [0xa24] = 0x5000c000
        0x000009e0:    6808        .h      LDR      r0,[r1,#0]
        0x000009e2:    2208        ."      MOVS     r2,#8
        0x000009e4:    4310        .C      ORRS     r0,r0,r2
        0x000009e6:    6008        .`      STR      r0,[r1,#0]
        0x000009e8:    e00e        ..      B        0xa08 ; DataFlashRead + 64
        0x000009ea:    2400        .$      MOVS     r4,#0
        0x000009ec:    00a1        ..      LSLS     r1,r4,#2
        0x000009ee:    1948        H.      ADDS     r0,r1,r5
        0x000009f0:    9100        ..      STR      r1,[sp,#0]
        0x000009f2:    f000f8cf    ....    BL       FMC_Read ; 0xb94
        0x000009f6:    9a01        ..      LDR      r2,[sp,#4]
        0x000009f8:    9900        ..      LDR      r1,[sp,#0]
        0x000009fa:    1c64        d.      ADDS     r4,r4,#1
        0x000009fc:    5050        PP      STR      r0,[r2,r1]
        0x000009fe:    d0f5        ..      BEQ      0x9ec ; DataFlashRead + 36
        0x00000a00:    1d3f        ?.      ADDS     r7,r7,#4
        0x00000a02:    1d2d        -.      ADDS     r5,r5,#4
        0x00000a04:    1f36        6.      SUBS     r6,r6,#4
        0x00000a06:    9701        ..      STR      r7,[sp,#4]
        0x00000a08:    2e04        ..      CMP      r6,#4
        0x00000a0a:    daee        ..      BGE      0x9ea ; DataFlashRead + 34
        0x00000a0c:    4a05        .J      LDR      r2,[pc,#20] ; [0xa24] = 0x5000c000
        0x00000a0e:    6811        .h      LDR      r1,[r2,#0]
        0x00000a10:    2008        .       MOVS     r0,#8
        0x00000a12:    4381        .C      BICS     r1,r1,r0
        0x00000a14:    6011        .`      STR      r1,[r2,#0]
        0x00000a16:    f000f893    ....    BL       FMC_Close ; 0xb40
        0x00000a1a:    4903        .I      LDR      r1,[pc,#12] ; [0xa28] = 0x50000100
        0x00000a1c:    2000        .       MOVS     r0,#0
        0x00000a1e:    6008        .`      STR      r0,[r1,#0]
        0x00000a20:    bdfe        ..      POP      {r1-r7,pc}
    $d
        0x00000a22:    0000        ..      DCW    0
        0x00000a24:    5000c000    ...P    DCD    1342226432
        0x00000a28:    50000100    ...P    DCD    1342177536
    $t
    i.DataFlashReadPage
    DataFlashReadPage
        0x00000a2c:    b5f8        ..      PUSH     {r3-r7,lr}
        0x00000a2e:    460e        .F      MOV      r6,r1
        0x00000a30:    213f        ?!      MOVS     r1,#0x3f
        0x00000a32:    02c9        ..      LSLS     r1,r1,#11
        0x00000a34:    1847        G.      ADDS     r7,r0,r1
        0x00000a36:    2400        .$      MOVS     r4,#0
        0x00000a38:    00a5        ..      LSLS     r5,r4,#2
        0x00000a3a:    19e8        ..      ADDS     r0,r5,r7
        0x00000a3c:    f000f8aa    ....    BL       FMC_Read ; 0xb94
        0x00000a40:    1c64        d.      ADDS     r4,r4,#1
        0x00000a42:    5170        pQ      STR      r0,[r6,r5]
        0x00000a44:    2c80        .,      CMP      r4,#0x80
        0x00000a46:    d3f7        ..      BCC      0xa38 ; DataFlashReadPage + 12
        0x00000a48:    bdf8        ..      POP      {r3-r7,pc}
        0x00000a4a:    0000        ..      MOVS     r0,r0
    i.DataFlashWrite
    DataFlashWrite
        0x00000a4c:    b5fe        ..      PUSH     {r1-r7,lr}
        0x00000a4e:    460e        .F      MOV      r6,r1
        0x00000a50:    213f        ?!      MOVS     r1,#0x3f
        0x00000a52:    02c9        ..      LSLS     r1,r1,#11
        0x00000a54:    4617        .F      MOV      r7,r2
        0x00000a56:    1845        E.      ADDS     r5,r0,r1
        0x00000a58:    f000faf4    ....    BL       SYS_UnlockReg ; 0x1044
        0x00000a5c:    f000f892    ....    BL       FMC_Open ; 0xb84
        0x00000a60:    4a34        4J      LDR      r2,[pc,#208] ; [0xb34] = 0x5000c000
        0x00000a62:    6810        .h      LDR      r0,[r2,#0]
        0x00000a64:    2108        .!      MOVS     r1,#8
        0x00000a66:    4308        .C      ORRS     r0,r0,r1
        0x00000a68:    6010        .`      STR      r0,[r2,#0]
        0x00000a6a:    018c        ..      LSLS     r4,r1,#6
        0x00000a6c:    42a6        .B      CMP      r6,r4
        0x00000a6e:    d115        ..      BNE      0xa9c ; DataFlashWrite + 80
        0x00000a70:    05e8        ..      LSLS     r0,r5,#23
        0x00000a72:    d113        ..      BNE      0xa9c ; DataFlashWrite + 80
        0x00000a74:    4628        (F      MOV      r0,r5
        0x00000a76:    f000f86b    ..k.    BL       FMC_Erase ; 0xb50
        0x00000a7a:    e00c        ..      B        0xa96 ; DataFlashWrite + 74
        0x00000a7c:    4639        9F      MOV      r1,r7
        0x00000a7e:    4628        (F      MOV      r0,r5
        0x00000a80:    f7ffff8a    ....    BL       DataFlashProgramPage ; 0x998
        0x00000a84:    35ff        .5      ADDS     r5,r5,#0xff
        0x00000a86:    3eff        .>      SUBS     r6,r6,#0xff
        0x00000a88:    35ff        .5      ADDS     r5,r5,#0xff
        0x00000a8a:    3eff        .>      SUBS     r6,r6,#0xff
        0x00000a8c:    37ff        .7      ADDS     r7,r7,#0xff
        0x00000a8e:    3502        .5      ADDS     r5,#2
        0x00000a90:    3e02        .>      SUBS     r6,#2
        0x00000a92:    37ff        .7      ADDS     r7,r7,#0xff
        0x00000a94:    3702        .7      ADDS     r7,#2
        0x00000a96:    42a6        .B      CMP      r6,r4
        0x00000a98:    daf0        ..      BGE      0xa7c ; DataFlashWrite + 48
        0x00000a9a:    e03f        ?.      B        0xb1c ; DataFlashWrite + 208
        0x00000a9c:    21ff        .!      MOVS     r1,#0xff
        0x00000a9e:    4628        (F      MOV      r0,r5
        0x00000aa0:    0249        I.      LSLS     r1,r1,#9
        0x00000aa2:    4008        .@      ANDS     r0,r0,r1
        0x00000aa4:    9001        ..      STR      r0,[sp,#4]
        0x00000aa6:    05e8        ..      LSLS     r0,r5,#23
        0x00000aa8:    0dc0        ..      LSRS     r0,r0,#23
        0x00000aaa:    9000        ..      STR      r0,[sp,#0]
        0x00000aac:    d103        ..      BNE      0xab6 ; DataFlashWrite + 106
        0x00000aae:    2001        .       MOVS     r0,#1
        0x00000ab0:    0240        @.      LSLS     r0,r0,#9
        0x00000ab2:    4286        .B      CMP      r6,r0
        0x00000ab4:    d206        ..      BCS      0xac4 ; DataFlashWrite + 120
        0x00000ab6:    223f        ?"      MOVS     r2,#0x3f
        0x00000ab8:    9801        ..      LDR      r0,[sp,#4]
        0x00000aba:    02d2        ..      LSLS     r2,r2,#11
        0x00000abc:    491e        .I      LDR      r1,[pc,#120] ; [0xb38] = 0x2000004c
        0x00000abe:    1a80        ..      SUBS     r0,r0,r2
        0x00000ac0:    f7ffffb4    ....    BL       DataFlashReadPage ; 0xa2c
        0x00000ac4:    2101        .!      MOVS     r1,#1
        0x00000ac6:    9800        ..      LDR      r0,[sp,#0]
        0x00000ac8:    0249        I.      LSLS     r1,r1,#9
        0x00000aca:    1a0c        ..      SUBS     r4,r1,r0
        0x00000acc:    42a6        .B      CMP      r6,r4
        0x00000ace:    d200        ..      BCS      0xad2 ; DataFlashWrite + 134
        0x00000ad0:    4634        4F      MOV      r4,r6
        0x00000ad2:    9900        ..      LDR      r1,[sp,#0]
        0x00000ad4:    9a00        ..      LDR      r2,[sp,#0]
        0x00000ad6:    17c9        ..      ASRS     r1,r1,#31
        0x00000ad8:    0f89        ..      LSRS     r1,r1,#30
        0x00000ada:    1889        ..      ADDS     r1,r1,r2
        0x00000adc:    1089        ..      ASRS     r1,r1,#2
        0x00000ade:    468e        .F      MOV      lr,r1
        0x00000ae0:    17e1        ..      ASRS     r1,r4,#31
        0x00000ae2:    0f89        ..      LSRS     r1,r1,#30
        0x00000ae4:    2000        .       MOVS     r0,#0
        0x00000ae6:    1909        ..      ADDS     r1,r1,r4
        0x00000ae8:    1089        ..      ASRS     r1,r1,#2
        0x00000aea:    468c        .F      MOV      r12,r1
        0x00000aec:    e008        ..      B        0xb00 ; DataFlashWrite + 180
        0x00000aee:    4671        qF      MOV      r1,lr
        0x00000af0:    180b        ..      ADDS     r3,r1,r0
        0x00000af2:    4911        .I      LDR      r1,[pc,#68] ; [0xb38] = 0x2000004c
        0x00000af4:    0082        ..      LSLS     r2,r0,#2
        0x00000af6:    009b        ..      LSLS     r3,r3,#2
        0x00000af8:    185b        [.      ADDS     r3,r3,r1
        0x00000afa:    58ba        .X      LDR      r2,[r7,r2]
        0x00000afc:    1c40        @.      ADDS     r0,r0,#1
        0x00000afe:    601a        .`      STR      r2,[r3,#0]
        0x00000b00:    4584        .E      CMP      r12,r0
        0x00000b02:    dcf4        ..      BGT      0xaee ; DataFlashWrite + 162
        0x00000b04:    9801        ..      LDR      r0,[sp,#4]
        0x00000b06:    f000f823    ..#.    BL       FMC_Erase ; 0xb50
        0x00000b0a:    490b        .I      LDR      r1,[pc,#44] ; [0xb38] = 0x2000004c
        0x00000b0c:    9801        ..      LDR      r0,[sp,#4]
        0x00000b0e:    f7ffff43    ..C.    BL       DataFlashProgramPage ; 0x998
        0x00000b12:    1b36        6.      SUBS     r6,r6,r4
        0x00000b14:    192d        -.      ADDS     r5,r5,r4
        0x00000b16:    193f        ?.      ADDS     r7,r7,r4
        0x00000b18:    2e00        ..      CMP      r6,#0
        0x00000b1a:    d1bf        ..      BNE      0xa9c ; DataFlashWrite + 80
        0x00000b1c:    4805        .H      LDR      r0,[pc,#20] ; [0xb34] = 0x5000c000
        0x00000b1e:    6801        .h      LDR      r1,[r0,#0]
        0x00000b20:    2208        ."      MOVS     r2,#8
        0x00000b22:    4391        .C      BICS     r1,r1,r2
        0x00000b24:    6001        .`      STR      r1,[r0,#0]
        0x00000b26:    f000f80b    ....    BL       FMC_Close ; 0xb40
        0x00000b2a:    4904        .I      LDR      r1,[pc,#16] ; [0xb3c] = 0x50000100
        0x00000b2c:    2000        .       MOVS     r0,#0
        0x00000b2e:    6008        .`      STR      r0,[r1,#0]
        0x00000b30:    bdfe        ..      POP      {r1-r7,pc}
    $d
        0x00000b32:    0000        ..      DCW    0
        0x00000b34:    5000c000    ...P    DCD    1342226432
        0x00000b38:    2000004c    L..     DCD    536870988
        0x00000b3c:    50000100    ...P    DCD    1342177536
    $t
    i.FMC_Close
    FMC_Close
        0x00000b40:    4802        .H      LDR      r0,[pc,#8] ; [0xb4c] = 0x5000c000
        0x00000b42:    6801        .h      LDR      r1,[r0,#0]
        0x00000b44:    0849        I.      LSRS     r1,r1,#1
        0x00000b46:    0049        I.      LSLS     r1,r1,#1
        0x00000b48:    6001        .`      STR      r1,[r0,#0]
        0x00000b4a:    4770        pG      BX       lr
    $d
        0x00000b4c:    5000c000    ...P    DCD    1342226432
    $t
    i.FMC_Erase
    FMC_Erase
        0x00000b50:    490b        .I      LDR      r1,[pc,#44] ; [0xb80] = 0x5000c000
        0x00000b52:    2222        ""      MOVS     r2,#0x22
        0x00000b54:    60ca        .`      STR      r2,[r1,#0xc]
        0x00000b56:    6048        H`      STR      r0,[r1,#4]
        0x00000b58:    2001        .       MOVS     r0,#1
        0x00000b5a:    6108        .a      STR      r0,[r1,#0x10]
        0x00000b5c:    f3bf8f6f    ..o.    ISB      
        0x00000b60:    6908        .i      LDR      r0,[r1,#0x10]
        0x00000b62:    2800        .(      CMP      r0,#0
        0x00000b64:    d1fc        ..      BNE      0xb60 ; FMC_Erase + 16
        0x00000b66:    6808        .h      LDR      r0,[r1,#0]
        0x00000b68:    0640        @.      LSLS     r0,r0,#25
        0x00000b6a:    d506        ..      BPL      0xb7a ; FMC_Erase + 42
        0x00000b6c:    6808        .h      LDR      r0,[r1,#0]
        0x00000b6e:    2240        @"      MOVS     r2,#0x40
        0x00000b70:    4310        .C      ORRS     r0,r0,r2
        0x00000b72:    6008        .`      STR      r0,[r1,#0]
        0x00000b74:    2000        .       MOVS     r0,#0
        0x00000b76:    43c0        .C      MVNS     r0,r0
        0x00000b78:    4770        pG      BX       lr
        0x00000b7a:    2000        .       MOVS     r0,#0
        0x00000b7c:    4770        pG      BX       lr
    $d
        0x00000b7e:    0000        ..      DCW    0
        0x00000b80:    5000c000    ...P    DCD    1342226432
    $t
    i.FMC_Open
    FMC_Open
        0x00000b84:    4802        .H      LDR      r0,[pc,#8] ; [0xb90] = 0x5000c000
        0x00000b86:    6801        .h      LDR      r1,[r0,#0]
        0x00000b88:    2201        ."      MOVS     r2,#1
        0x00000b8a:    4311        .C      ORRS     r1,r1,r2
        0x00000b8c:    6001        .`      STR      r1,[r0,#0]
        0x00000b8e:    4770        pG      BX       lr
    $d
        0x00000b90:    5000c000    ...P    DCD    1342226432
    $t
    i.FMC_Read
    FMC_Read
        0x00000b94:    4906        .I      LDR      r1,[pc,#24] ; [0xbb0] = 0x5000c000
        0x00000b96:    2200        ."      MOVS     r2,#0
        0x00000b98:    60ca        .`      STR      r2,[r1,#0xc]
        0x00000b9a:    6048        H`      STR      r0,[r1,#4]
        0x00000b9c:    2001        .       MOVS     r0,#1
        0x00000b9e:    6108        .a      STR      r0,[r1,#0x10]
        0x00000ba0:    f3bf8f6f    ..o.    ISB      
        0x00000ba4:    6908        .i      LDR      r0,[r1,#0x10]
        0x00000ba6:    2800        .(      CMP      r0,#0
        0x00000ba8:    d1fc        ..      BNE      0xba4 ; FMC_Read + 16
        0x00000baa:    6888        .h      LDR      r0,[r1,#8]
        0x00000bac:    4770        pG      BX       lr
    $d
        0x00000bae:    0000        ..      DCW    0
        0x00000bb0:    5000c000    ...P    DCD    1342226432
    $t
    i.FMC_Read
    FMC_Read
        0x00000bb4:    4906        .I      LDR      r1,[pc,#24] ; [0xbd0] = 0x5000c000
        0x00000bb6:    2200        ."      MOVS     r2,#0
        0x00000bb8:    60ca        .`      STR      r2,[r1,#0xc]
        0x00000bba:    6048        H`      STR      r0,[r1,#4]
        0x00000bbc:    2001        .       MOVS     r0,#1
        0x00000bbe:    6108        .a      STR      r0,[r1,#0x10]
        0x00000bc0:    f3bf8f6f    ..o.    ISB      
        0x00000bc4:    6908        .i      LDR      r0,[r1,#0x10]
        0x00000bc6:    2800        .(      CMP      r0,#0
        0x00000bc8:    d1fc        ..      BNE      0xbc4 ; FMC_Read + 16
        0x00000bca:    6888        .h      LDR      r0,[r1,#8]
        0x00000bcc:    4770        pG      BX       lr
    $d
        0x00000bce:    0000        ..      DCW    0
        0x00000bd0:    5000c000    ...P    DCD    1342226432
    $t
    i.FMC_ReadConfig
    FMC_ReadConfig
        0x00000bd4:    b5f8        ..      PUSH     {r3-r7,lr}
        0x00000bd6:    460e        .F      MOV      r6,r1
        0x00000bd8:    4607        .F      MOV      r7,r0
        0x00000bda:    2400        .$      MOVS     r4,#0
        0x00000bdc:    e007        ..      B        0xbee ; FMC_ReadConfig + 26
        0x00000bde:    2003        .       MOVS     r0,#3
        0x00000be0:    00a5        ..      LSLS     r5,r4,#2
        0x00000be2:    0500        ..      LSLS     r0,r0,#20
        0x00000be4:    1828        (.      ADDS     r0,r5,r0
        0x00000be6:    f7ffffe5    ....    BL       FMC_Read ; 0xbb4
        0x00000bea:    5178        xQ      STR      r0,[r7,r5]
        0x00000bec:    1c64        d.      ADDS     r4,r4,#1
        0x00000bee:    42b4        .B      CMP      r4,r6
        0x00000bf0:    d3f5        ..      BCC      0xbde ; FMC_ReadConfig + 10
        0x00000bf2:    2000        .       MOVS     r0,#0
        0x00000bf4:    bdf8        ..      POP      {r3-r7,pc}
        0x00000bf6:    0000        ..      MOVS     r0,r0
    i.FMC_ReadDataFlashBaseAddr
    FMC_ReadDataFlashBaseAddr
        0x00000bf8:    4801        .H      LDR      r0,[pc,#4] ; [0xc00] = 0x5000c000
        0x00000bfa:    6940        @i      LDR      r0,[r0,#0x14]
        0x00000bfc:    4770        pG      BX       lr
    $d
        0x00000bfe:    0000        ..      DCW    0
        0x00000c00:    5000c000    ...P    DCD    1342226432
    $t
    i.FMC_WriteConfig
    FMC_WriteConfig
        0x00000c04:    b5f3        ..      PUSH     {r0,r1,r4-r7,lr}
        0x00000c06:    b081        ..      SUB      sp,sp,#4
        0x00000c08:    4607        .F      MOV      r7,r0
        0x00000c0a:    2400        .$      MOVS     r4,#0
        0x00000c0c:    4d0f        .M      LDR      r5,[pc,#60] ; [0xc4c] = 0x5000c000
        0x00000c0e:    e018        ..      B        0xc42 ; FMC_WriteConfig + 62
        0x00000c10:    00a6        ..      LSLS     r6,r4,#2
        0x00000c12:    2003        .       MOVS     r0,#3
        0x00000c14:    0500        ..      LSLS     r0,r0,#20
        0x00000c16:    1830        0.      ADDS     r0,r6,r0
        0x00000c18:    59b9        .Y      LDR      r1,[r7,r6]
        0x00000c1a:    2221        !"      MOVS     r2,#0x21
        0x00000c1c:    60ea        .`      STR      r2,[r5,#0xc]
        0x00000c1e:    6068        h`      STR      r0,[r5,#4]
        0x00000c20:    60a9        .`      STR      r1,[r5,#8]
        0x00000c22:    2101        .!      MOVS     r1,#1
        0x00000c24:    6129        )a      STR      r1,[r5,#0x10]
        0x00000c26:    f3bf8f6f    ..o.    ISB      
        0x00000c2a:    6929        )i      LDR      r1,[r5,#0x10]
        0x00000c2c:    2900        .)      CMP      r1,#0
        0x00000c2e:    d1fc        ..      BNE      0xc2a ; FMC_WriteConfig + 38
        0x00000c30:    f7ffffc0    ....    BL       FMC_Read ; 0xbb4
        0x00000c34:    59b9        .Y      LDR      r1,[r7,r6]
        0x00000c36:    4288        .B      CMP      r0,r1
        0x00000c38:    d002        ..      BEQ      0xc40 ; FMC_WriteConfig + 60
        0x00000c3a:    2000        .       MOVS     r0,#0
        0x00000c3c:    43c0        .C      MVNS     r0,r0
        0x00000c3e:    bdfe        ..      POP      {r1-r7,pc}
        0x00000c40:    1c64        d.      ADDS     r4,r4,#1
        0x00000c42:    9802        ..      LDR      r0,[sp,#8]
        0x00000c44:    4284        .B      CMP      r4,r0
        0x00000c46:    d3e3        ..      BCC      0xc10 ; FMC_WriteConfig + 12
        0x00000c48:    2000        .       MOVS     r0,#0
        0x00000c4a:    bdfe        ..      POP      {r1-r7,pc}
    $d
        0x00000c4c:    5000c000    ...P    DCD    1342226432
    $t
    i.GPIO_Init
    GPIO_Init
        0x00000c50:    b510        ..      PUSH     {r4,lr}
        0x00000c52:    2005        .       MOVS     r0,#5
        0x00000c54:    0700        ..      LSLS     r0,r0,#28
        0x00000c56:    6b41        Ak      LDR      r1,[r0,#0x34]
        0x00000c58:    2210        ."      MOVS     r2,#0x10
        0x00000c5a:    4391        .C      BICS     r1,r1,r2
        0x00000c5c:    6341        Ac      STR      r1,[r0,#0x34]
        0x00000c5e:    6b41        Ak      LDR      r1,[r0,#0x34]
        0x00000c60:    6341        Ac      STR      r1,[r0,#0x34]
        0x00000c62:    2201        ."      MOVS     r2,#1
        0x00000c64:    2110        .!      MOVS     r1,#0x10
        0x00000c66:    4802        .H      LDR      r0,[pc,#8] ; [0xc70] = 0x50004040
        0x00000c68:    f000f804    ....    BL       GPIO_SetMode ; 0xc74
        0x00000c6c:    bd10        ..      POP      {r4,pc}
    $d
        0x00000c6e:    0000        ..      DCW    0
        0x00000c70:    50004040    @@.P    DCD    1342193728
    $t
    i.GPIO_SetMode
    GPIO_SetMode
        0x00000c74:    b5f0        ..      PUSH     {r4-r7,lr}
        0x00000c76:    2300        .#      MOVS     r3,#0
        0x00000c78:    2701        .'      MOVS     r7,#1
        0x00000c7a:    463c        <F      MOV      r4,r7
        0x00000c7c:    409c        .@      LSLS     r4,r4,r3
        0x00000c7e:    420c        .B      TST      r4,r1
        0x00000c80:    d008        ..      BEQ      0xc94 ; GPIO_SetMode + 32
        0x00000c82:    6805        .h      LDR      r5,[r0,#0]
        0x00000c84:    005c        \.      LSLS     r4,r3,#1
        0x00000c86:    2603        .&      MOVS     r6,#3
        0x00000c88:    40a6        .@      LSLS     r6,r6,r4
        0x00000c8a:    43b5        .C      BICS     r5,r5,r6
        0x00000c8c:    4616        .F      MOV      r6,r2
        0x00000c8e:    40a6        .@      LSLS     r6,r6,r4
        0x00000c90:    4335        5C      ORRS     r5,r5,r6
        0x00000c92:    6005        .`      STR      r5,[r0,#0]
        0x00000c94:    1c5b        [.      ADDS     r3,r3,#1
        0x00000c96:    2b10        .+      CMP      r3,#0x10
        0x00000c98:    d3ef        ..      BCC      0xc7a ; GPIO_SetMode + 6
        0x00000c9a:    bdf0        ..      POP      {r4-r7,pc}
    i.Hard_Fault_Handler
    Hard_Fault_Handler
    __tagsym$$used
        0x00000c9c:    4604        .F      MOV      r4,r0
        0x00000c9e:    a003        ..      ADR      r0,{pc}+0xe ; 0xcac
        0x00000ca0:    f000fcf2    ....    BL       __0printf$8 ; 0x1688
        0x00000ca4:    4620         F      MOV      r0,r4
        0x00000ca6:    f001f8fd    ....    BL       stackDump ; 0x1ea4
        0x00000caa:    e7fe        ..      B        0xcaa ; Hard_Fault_Handler + 14
    $d
        0x00000cac:    48206e49    In H    DCD    1210084937
        0x00000cb0:    20647261    ard     DCD    543453793
        0x00000cb4:    6c756146    Faul    DCD    1819631942
        0x00000cb8:    61482074    t Ha    DCD    1632116852
        0x00000cbc:    656c646e    ndle    DCD    1701602414
        0x00000cc0:    00000a72    r...    DCD    2674
    $t
    i.IsDebugFifoEmpty
    IsDebugFifoEmpty
        0x00000cc4:    4802        .H      LDR      r0,[pc,#8] ; [0xcd0] = 0x40050000
        0x00000cc6:    6980        .i      LDR      r0,[r0,#0x18]
        0x00000cc8:    00c0        ..      LSLS     r0,r0,#3
        0x00000cca:    0fc0        ..      LSRS     r0,r0,#31
        0x00000ccc:    4770        pG      BX       lr
    $d
        0x00000cce:    0000        ..      DCW    0
        0x00000cd0:    40050000    ...@    DCD    1074069504
    $t
    i.SPI_DisableAutoSS
    SPI_DisableAutoSS
        0x00000cd4:    6881        .h      LDR      r1,[r0,#8]
        0x00000cd6:    2209        ."      MOVS     r2,#9
        0x00000cd8:    4391        .C      BICS     r1,r1,r2
        0x00000cda:    6081        .`      STR      r1,[r0,#8]
        0x00000cdc:    4770        pG      BX       lr
        0x00000cde:    0000        ..      MOVS     r0,r0
    i.SPI_Init
    SPI_Init
        0x00000ce0:    b538        8.      PUSH     {r3-r5,lr}
        0x00000ce2:    4c13        .L      LDR      r4,[pc,#76] ; [0xd30] = 0x2000002c
        0x00000ce4:    6922        "i      LDR      r2,[r4,#0x10]
        0x00000ce6:    2a02        .*      CMP      r2,#2
        0x00000ce8:    d00a        ..      BEQ      0xd00 ; SPI_Init + 32
        0x00000cea:    2a04        .*      CMP      r2,#4
        0x00000cec:    d005        ..      BEQ      0xcfa ; SPI_Init + 26
        0x00000cee:    4811        .H      LDR      r0,[pc,#68] ; [0xd34] = 0xfffff7fe
        0x00000cf0:    1810        ..      ADDS     r0,r2,r0
        0x00000cf2:    d016        ..      BEQ      0xd22 ; SPI_Init + 66
        0x00000cf4:    2802        .(      CMP      r0,#2
        0x00000cf6:    d107        ..      BNE      0xd08 ; SPI_Init + 40
        0x00000cf8:    e016        ..      B        0xd28 ; SPI_Init + 72
        0x00000cfa:    490f        .I      LDR      r1,[pc,#60] ; [0xd38] = 0x1fa8
        0x00000cfc:    a00f        ..      ADR      r0,{pc}+0x40 ; 0xd3c
        0x00000cfe:    e001        ..      B        0xd04 ; SPI_Init + 36
        0x00000d00:    490d        .I      LDR      r1,[pc,#52] ; [0xd38] = 0x1fa8
        0x00000d02:    a015        ..      ADR      r0,{pc}+0x56 ; 0xd58
        0x00000d04:    f000fcc0    ....    BL       __0printf$8 ; 0x1688
        0x00000d08:    481a        .H      LDR      r0,[pc,#104] ; [0xd74] = 0x186a0
        0x00000d0a:    9000        ..      STR      r0,[sp,#0]
        0x00000d0c:    6922        "i      LDR      r2,[r4,#0x10]
        0x00000d0e:    4c1a        .L      LDR      r4,[pc,#104] ; [0xd78] = 0x40030000
        0x00000d10:    2308        .#      MOVS     r3,#8
        0x00000d12:    2100        .!      MOVS     r1,#0
        0x00000d14:    4620         F      MOV      r0,r4
        0x00000d16:    f000f84d    ..M.    BL       SPI_Open ; 0xdb4
        0x00000d1a:    4620         F      MOV      r0,r4
        0x00000d1c:    f7ffffda    ....    BL       SPI_DisableAutoSS ; 0xcd4
        0x00000d20:    bd38        8.      POP      {r3-r5,pc}
        0x00000d22:    4905        .I      LDR      r1,[pc,#20] ; [0xd38] = 0x1fa8
        0x00000d24:    a015        ..      ADR      r0,{pc}+0x58 ; 0xd7c
        0x00000d26:    e7ed        ..      B        0xd04 ; SPI_Init + 36
        0x00000d28:    4903        .I      LDR      r1,[pc,#12] ; [0xd38] = 0x1fa8
        0x00000d2a:    a01b        ..      ADR      r0,{pc}+0x6e ; 0xd98
        0x00000d2c:    e7ea        ..      B        0xd04 ; SPI_Init + 36
    $d
        0x00000d2e:    0000        ..      DCW    0
        0x00000d30:    2000002c    ,..     DCD    536870956
        0x00000d34:    fffff7fe    ....    DCD    4294965246
        0x00000d38:    00001fa8    ....    DCD    8104
        0x00000d3c:    533a7325    %s:S    DCD    1396339493
        0x00000d40:    53205445    ET S    DCD    1394627653
        0x00000d44:    6d204950    PI m    DCD    1830832464
        0x00000d48:    2065646f    ode     DCD    543515759
        0x00000d4c:    78303a30    0:0x    DCD    2016426544
        0x00000d50:    58343025    %04X    DCD    1479815205
        0x00000d54:    00000a0d    ....    DCD    2573
        0x00000d58:    533a7325    %s:S    DCD    1396339493
        0x00000d5c:    53205445    ET S    DCD    1394627653
        0x00000d60:    6d204950    PI m    DCD    1830832464
        0x00000d64:    2065646f    ode     DCD    543515759
        0x00000d68:    78303a31    1:0x    DCD    2016426545
        0x00000d6c:    58343025    %04X    DCD    1479815205
        0x00000d70:    00000a0d    ....    DCD    2573
        0x00000d74:    000186a0    ....    DCD    100000
        0x00000d78:    40030000    ...@    DCD    1073938432
        0x00000d7c:    533a7325    %s:S    DCD    1396339493
        0x00000d80:    53205445    ET S    DCD    1394627653
        0x00000d84:    6d204950    PI m    DCD    1830832464
        0x00000d88:    2065646f    ode     DCD    543515759
        0x00000d8c:    78303a32    2:0x    DCD    2016426546
        0x00000d90:    58343025    %04X    DCD    1479815205
        0x00000d94:    00000a0d    ....    DCD    2573
        0x00000d98:    533a7325    %s:S    DCD    1396339493
        0x00000d9c:    53205445    ET S    DCD    1394627653
        0x00000da0:    6d204950    PI m    DCD    1830832464
        0x00000da4:    2065646f    ode     DCD    543515759
        0x00000da8:    78303a33    3:0x    DCD    2016426547
        0x00000dac:    58343025    %04X    DCD    1479815205
        0x00000db0:    00000a0d    ....    DCD    2573
    $t
    i.SPI_Open
    SPI_Open
        0x00000db4:    b5f8        ..      PUSH     {r3-r7,lr}
        0x00000db6:    9e06        ..      LDR      r6,[sp,#0x18]
        0x00000db8:    460d        .F      MOV      r5,r1
        0x00000dba:    4604        .F      MOV      r4,r0
        0x00000dbc:    2b20         +      CMP      r3,#0x20
        0x00000dbe:    d100        ..      BNE      0xdc2 ; SPI_Open + 14
        0x00000dc0:    2300        .#      MOVS     r3,#0
        0x00000dc2:    00d8        ..      LSLS     r0,r3,#3
        0x00000dc4:    4328        (C      ORRS     r0,r0,r5
        0x00000dc6:    4310        .C      ORRS     r0,r0,r2
        0x00000dc8:    6020         `      STR      r0,[r4,#0]
        0x00000dca:    6be0        .k      LDR      r0,[r4,#0x3c]
        0x00000dcc:    2101        .!      MOVS     r1,#1
        0x00000dce:    07c9        ..      LSLS     r1,r1,#31
        0x00000dd0:    4308        .C      ORRS     r0,r0,r1
        0x00000dd2:    63e0        .c      STR      r0,[r4,#0x3c]
        0x00000dd4:    f7fffb32    ..2.    BL       CLK_GetHCLKFreq ; 0x43c
        0x00000dd8:    2200        ."      MOVS     r2,#0
        0x00000dda:    493d        =I      LDR      r1,[pc,#244] ; [0xed0] = 0x40030000
        0x00000ddc:    4607        .F      MOV      r7,r0
        0x00000dde:    2d00        .-      CMP      r5,#0
        0x00000de0:    d008        ..      BEQ      0xdf4 ; SPI_Open + 64
        0x00000de2:    2010        .       MOVS     r0,#0x10
        0x00000de4:    60a0        .`      STR      r0,[r4,#8]
        0x00000de6:    428c        .B      CMP      r4,r1
        0x00000de8:    d16a        j.      BNE      0xec0 ; SPI_Open + 268
        0x00000dea:    493a        :I      LDR      r1,[pc,#232] ; [0xed4] = 0x50000200
        0x00000dec:    694b        Ki      LDR      r3,[r1,#0x14]
        0x00000dee:    4303        .C      ORRS     r3,r3,r0
        0x00000df0:    614b        Ka      STR      r3,[r1,#0x14]
        0x00000df2:    e06a        j.      B        0xeca ; SPI_Open + 278
        0x00000df4:    2000        .       MOVS     r0,#0
        0x00000df6:    60a0        .`      STR      r0,[r4,#8]
        0x00000df8:    4835        5H      LDR      r0,[pc,#212] ; [0xed0] = 0x40030000
        0x00000dfa:    4284        .B      CMP      r4,r0
        0x00000dfc:    4835        5H      LDR      r0,[pc,#212] ; [0xed4] = 0x50000200
        0x00000dfe:    6940        @i      LDR      r0,[r0,#0x14]
        0x00000e00:    d101        ..      BNE      0xe06 ; SPI_Open + 82
        0x00000e02:    06c0        ..      LSLS     r0,r0,#27
        0x00000e04:    e000        ..      B        0xe08 ; SPI_Open + 84
        0x00000e06:    0680        ..      LSLS     r0,r0,#26
        0x00000e08:    2800        .(      CMP      r0,#0
        0x00000e0a:    da01        ..      BGE      0xe10 ; SPI_Open + 92
        0x00000e0c:    463d        =F      MOV      r5,r7
        0x00000e0e:    e002        ..      B        0xe16 ; SPI_Open + 98
        0x00000e10:    f7fffb66    ..f.    BL       CLK_GetPLLClockFreq ; 0x4e0
        0x00000e14:    4605        .F      MOV      r5,r0
        0x00000e16:    42be        .B      CMP      r6,r7
        0x00000e18:    d30f        ..      BCC      0xe3a ; SPI_Open + 134
        0x00000e1a:    482d        -H      LDR      r0,[pc,#180] ; [0xed0] = 0x40030000
        0x00000e1c:    4284        .B      CMP      r4,r0
        0x00000e1e:    482d        -H      LDR      r0,[pc,#180] ; [0xed4] = 0x50000200
        0x00000e20:    d104        ..      BNE      0xe2c ; SPI_Open + 120
        0x00000e22:    6942        Bi      LDR      r2,[r0,#0x14]
        0x00000e24:    2110        .!      MOVS     r1,#0x10
        0x00000e26:    430a        .C      ORRS     r2,r2,r1
        0x00000e28:    6142        Ba      STR      r2,[r0,#0x14]
        0x00000e2a:    e003        ..      B        0xe34 ; SPI_Open + 128
        0x00000e2c:    6941        Ai      LDR      r1,[r0,#0x14]
        0x00000e2e:    2220         "      MOVS     r2,#0x20
        0x00000e30:    4311        .C      ORRS     r1,r1,r2
        0x00000e32:    6141        Aa      STR      r1,[r0,#0x14]
        0x00000e34:    2000        .       MOVS     r0,#0
        0x00000e36:    6060        ``      STR      r0,[r4,#4]
        0x00000e38:    e048        H.      B        0xecc ; SPI_Open + 280
        0x00000e3a:    42ae        .B      CMP      r6,r5
        0x00000e3c:    d303        ..      BCC      0xe46 ; SPI_Open + 146
        0x00000e3e:    2000        .       MOVS     r0,#0
        0x00000e40:    6060        ``      STR      r0,[r4,#4]
        0x00000e42:    4628        (F      MOV      r0,r5
        0x00000e44:    bdf8        ..      POP      {r3-r7,pc}
        0x00000e46:    2e00        ..      CMP      r6,#0
        0x00000e48:    d028        (.      BEQ      0xe9c ; SPI_Open + 232
        0x00000e4a:    200a        .       MOVS     r0,#0xa
        0x00000e4c:    462f        /F      MOV      r7,r5
        0x00000e4e:    4347        GC      MULS     r7,r0,r7
        0x00000e50:    4631        1F      MOV      r1,r6
        0x00000e52:    4638        8F      MOV      r0,r7
        0x00000e54:    f7fff972    ..r.    BL       __aeabi_uidiv ; 0x13c
        0x00000e58:    210a        .!      MOVS     r1,#0xa
        0x00000e5a:    1d40        @.      ADDS     r0,r0,#5
        0x00000e5c:    f7fff96e    ..n.    BL       __aeabi_uidiv ; 0x13c
        0x00000e60:    1e40        @.      SUBS     r0,r0,#1
        0x00000e62:    28ff        .(      CMP      r0,#0xff
        0x00000e64:    d924        $.      BLS      0xeb0 ; SPI_Open + 252
        0x00000e66:    6be0        .k      LDR      r0,[r4,#0x3c]
        0x00000e68:    0040        @.      LSLS     r0,r0,#1
        0x00000e6a:    0840        @.      LSRS     r0,r0,#1
        0x00000e6c:    63e0        .c      STR      r0,[r4,#0x3c]
        0x00000e6e:    0071        q.      LSLS     r1,r6,#1
        0x00000e70:    4638        8F      MOV      r0,r7
        0x00000e72:    f7fff963    ..c.    BL       __aeabi_uidiv ; 0x13c
        0x00000e76:    210a        .!      MOVS     r1,#0xa
        0x00000e78:    1d40        @.      ADDS     r0,r0,#5
        0x00000e7a:    f7fff95f    .._.    BL       __aeabi_uidiv ; 0x13c
        0x00000e7e:    1e40        @.      SUBS     r0,r0,#1
        0x00000e80:    28ff        .(      CMP      r0,#0xff
        0x00000e82:    d900        ..      BLS      0xe86 ; SPI_Open + 210
        0x00000e84:    20ff        .       MOVS     r0,#0xff
        0x00000e86:    6861        ah      LDR      r1,[r4,#4]
        0x00000e88:    0a09        ..      LSRS     r1,r1,#8
        0x00000e8a:    0209        ..      LSLS     r1,r1,#8
        0x00000e8c:    4301        .C      ORRS     r1,r1,r0
        0x00000e8e:    6061        a`      STR      r1,[r4,#4]
        0x00000e90:    0041        A.      LSLS     r1,r0,#1
        0x00000e92:    4628        (F      MOV      r0,r5
        0x00000e94:    1c89        ..      ADDS     r1,r1,#2
        0x00000e96:    f7fff951    ..Q.    BL       __aeabi_uidiv ; 0x13c
        0x00000e9a:    bdf8        ..      POP      {r3-r7,pc}
        0x00000e9c:    6be0        .k      LDR      r0,[r4,#0x3c]
        0x00000e9e:    0040        @.      LSLS     r0,r0,#1
        0x00000ea0:    0840        @.      LSRS     r0,r0,#1
        0x00000ea2:    63e0        .c      STR      r0,[r4,#0x3c]
        0x00000ea4:    6860        `h      LDR      r0,[r4,#4]
        0x00000ea6:    21ff        .!      MOVS     r1,#0xff
        0x00000ea8:    4308        .C      ORRS     r0,r0,r1
        0x00000eaa:    6060        ``      STR      r0,[r4,#4]
        0x00000eac:    0a68        h.      LSRS     r0,r5,#9
        0x00000eae:    bdf8        ..      POP      {r3-r7,pc}
        0x00000eb0:    6861        ah      LDR      r1,[r4,#4]
        0x00000eb2:    0a09        ..      LSRS     r1,r1,#8
        0x00000eb4:    0209        ..      LSLS     r1,r1,#8
        0x00000eb6:    4301        .C      ORRS     r1,r1,r0
        0x00000eb8:    6061        a`      STR      r1,[r4,#4]
        0x00000eba:    1c41        A.      ADDS     r1,r0,#1
        0x00000ebc:    4628        (F      MOV      r0,r5
        0x00000ebe:    e7ea        ..      B        0xe96 ; SPI_Open + 226
        0x00000ec0:    4804        .H      LDR      r0,[pc,#16] ; [0xed4] = 0x50000200
        0x00000ec2:    6941        Ai      LDR      r1,[r0,#0x14]
        0x00000ec4:    2320         #      MOVS     r3,#0x20
        0x00000ec6:    4319        .C      ORRS     r1,r1,r3
        0x00000ec8:    6141        Aa      STR      r1,[r0,#0x14]
        0x00000eca:    6062        b`      STR      r2,[r4,#4]
        0x00000ecc:    4638        8F      MOV      r0,r7
        0x00000ece:    bdf8        ..      POP      {r3-r7,pc}
    $d
        0x00000ed0:    40030000    ...@    DCD    1073938432
        0x00000ed4:    50000200    ...P    DCD    1342177792
    $t
    i.SPI_Write_Packet
    SPI_Write_Packet
        0x00000ed8:    b57c        |.      PUSH     {r2-r6,lr}
        0x00000eda:    2600        .&      MOVS     r6,#0
        0x00000edc:    9600        ..      STR      r6,[sp,#0]
        0x00000ede:    215a        Z!      MOVS     r1,#0x5a
        0x00000ee0:    466a        jF      MOV      r2,sp
        0x00000ee2:    9601        ..      STR      r6,[sp,#4]
        0x00000ee4:    7011        .p      STRB     r1,[r2,#0]
        0x00000ee6:    4d13        .M      LDR      r5,[pc,#76] ; [0xf34] = 0x2000002c
        0x00000ee8:    7051        Qp      STRB     r1,[r2,#1]
        0x00000eea:    7828        (x      LDRB     r0,[r5,#0]
        0x00000eec:    7090        .p      STRB     r0,[r2,#2]
        0x00000eee:    70d6        .p      STRB     r6,[r2,#3]
        0x00000ef0:    7116        .q      STRB     r6,[r2,#4]
        0x00000ef2:    1c40        @.      ADDS     r0,r0,#1
        0x00000ef4:    7150        Pq      STRB     r0,[r2,#5]
        0x00000ef6:    7191        .q      STRB     r1,[r2,#6]
        0x00000ef8:    4634        4F      MOV      r4,r6
        0x00000efa:    71d1        .q      STRB     r1,[r2,#7]
        0x00000efc:    2001        .       MOVS     r0,#1
        0x00000efe:    f000f8c1    ....    BL       SwitchToFunctionPin ; 0x1084
        0x00000f02:    4b0d        .K      LDR      r3,[pc,#52] ; [0xf38] = 0x50004280
        0x00000f04:    601e        .`      STR      r6,[r3,#0]
        0x00000f06:    480d        .H      LDR      r0,[pc,#52] ; [0xf3c] = 0x40030000
        0x00000f08:    466e        nF      MOV      r6,sp
        0x00000f0a:    2101        .!      MOVS     r1,#1
        0x00000f0c:    5d32        2]      LDRB     r2,[r6,r4]
        0x00000f0e:    6202        .b      STR      r2,[r0,#0x20]
        0x00000f10:    6802        .h      LDR      r2,[r0,#0]
        0x00000f12:    430a        .C      ORRS     r2,r2,r1
        0x00000f14:    6002        .`      STR      r2,[r0,#0]
        0x00000f16:    6802        .h      LDR      r2,[r0,#0]
        0x00000f18:    07d2        ..      LSLS     r2,r2,#31
        0x00000f1a:    d1fc        ..      BNE      0xf16 ; SPI_Write_Packet + 62
        0x00000f1c:    1c64        d.      ADDS     r4,r4,#1
        0x00000f1e:    b2e4        ..      UXTB     r4,r4
        0x00000f20:    2c08        .,      CMP      r4,#8
        0x00000f22:    d3f3        ..      BCC      0xf0c ; SPI_Write_Packet + 52
        0x00000f24:    6019        .`      STR      r1,[r3,#0]
        0x00000f26:    2000        .       MOVS     r0,#0
        0x00000f28:    f000f8ac    ....    BL       SwitchToFunctionPin ; 0x1084
        0x00000f2c:    7828        (x      LDRB     r0,[r5,#0]
        0x00000f2e:    1c40        @.      ADDS     r0,r0,#1
        0x00000f30:    7028        (p      STRB     r0,[r5,#0]
        0x00000f32:    bd7c        |.      POP      {r2-r6,pc}
    $d
        0x00000f34:    2000002c    ,..     DCD    536870956
        0x00000f38:    50004280    .B.P    DCD    1342194304
        0x00000f3c:    40030000    ...@    DCD    1073938432
    $t
    i.SYS_ClearResetSrc
    SYS_ClearResetSrc
        0x00000f40:    2105        .!      MOVS     r1,#5
        0x00000f42:    0709        ..      LSLS     r1,r1,#28
        0x00000f44:    684a        Jh      LDR      r2,[r1,#4]
        0x00000f46:    4302        .C      ORRS     r2,r2,r0
        0x00000f48:    604a        J`      STR      r2,[r1,#4]
        0x00000f4a:    4770        pG      BX       lr
    i.SYS_GetResetSrc
    SYS_GetResetSrc
        0x00000f4c:    2005        .       MOVS     r0,#5
        0x00000f4e:    0700        ..      LSLS     r0,r0,#28
        0x00000f50:    6840        @h      LDR      r0,[r0,#4]
        0x00000f52:    4770        pG      BX       lr
    i.SYS_Init
    SYS_Init
        0x00000f54:    b510        ..      PUSH     {r4,lr}
        0x00000f56:    f000f865    ..e.    BL       SYS_UnlockReg ; 0x1024
        0x00000f5a:    2004        .       MOVS     r0,#4
        0x00000f5c:    f7fffa5e    ..^.    BL       CLK_EnableXtalRC ; 0x41c
        0x00000f60:    2010        .       MOVS     r0,#0x10
        0x00000f62:    f7fffbd3    ....    BL       CLK_WaitClockReady ; 0x70c
        0x00000f66:    2100        .!      MOVS     r1,#0
        0x00000f68:    2007        .       MOVS     r0,#7
        0x00000f6a:    f7fffb4d    ..M.    BL       CLK_SetHCLK ; 0x608
        0x00000f6e:    481e        .H      LDR      r0,[pc,#120] ; [0xfe8] = 0x44aa200
        0x00000f70:    f7fffae2    ....    BL       CLK_SetCoreClock ; 0x538
        0x00000f74:    4c1d        .L      LDR      r4,[pc,#116] ; [0xfec] = 0x57803d10
        0x00000f76:    4620         F      MOV      r0,r4
        0x00000f78:    f7fff96c    ..l.    BL       CLK_EnableModuleClock ; 0x254
        0x00000f7c:    2103        .!      MOVS     r1,#3
        0x00000f7e:    2200        ."      MOVS     r2,#0
        0x00000f80:    0609        ..      LSLS     r1,r1,#24
        0x00000f82:    4620         F      MOV      r0,r4
        0x00000f84:    f7fffb64    ..d.    BL       CLK_SetModuleClock ; 0x650
        0x00000f88:    4c19        .L      LDR      r4,[pc,#100] ; [0xff0] = 0x5ec00003
        0x00000f8a:    4620         F      MOV      r0,r4
        0x00000f8c:    f7fff962    ..b.    BL       CLK_EnableModuleClock ; 0x254
        0x00000f90:    2107        .!      MOVS     r1,#7
        0x00000f92:    2200        ."      MOVS     r2,#0
        0x00000f94:    0309        ..      LSLS     r1,r1,#12
        0x00000f96:    4620         F      MOV      r0,r4
        0x00000f98:    f7fffb5a    ..Z.    BL       CLK_SetModuleClock ; 0x650
        0x00000f9c:    4c15        .L      LDR      r4,[pc,#84] ; [0xff4] = 0x5240000c
        0x00000f9e:    2200        ."      MOVS     r2,#0
        0x00000fa0:    2110        .!      MOVS     r1,#0x10
        0x00000fa2:    4620         F      MOV      r0,r4
        0x00000fa4:    f7fffb54    ..T.    BL       CLK_SetModuleClock ; 0x650
        0x00000fa8:    4620         F      MOV      r0,r4
        0x00000faa:    f7fff953    ..S.    BL       CLK_EnableModuleClock ; 0x254
        0x00000fae:    2005        .       MOVS     r0,#5
        0x00000fb0:    0700        ..      LSLS     r0,r0,#28
        0x00000fb2:    6b82        .k      LDR      r2,[r0,#0x38]
        0x00000fb4:    210e        .!      MOVS     r1,#0xe
        0x00000fb6:    438a        .C      BICS     r2,r2,r1
        0x00000fb8:    6382        .c      STR      r2,[r0,#0x38]
        0x00000fba:    6b82        .k      LDR      r2,[r0,#0x38]
        0x00000fbc:    430a        .C      ORRS     r2,r2,r1
        0x00000fbe:    6382        .c      STR      r2,[r0,#0x38]
        0x00000fc0:    490d        .I      LDR      r1,[pc,#52] ; [0xff8] = 0x50000040
        0x00000fc2:    690a        .i      LDR      r2,[r1,#0x10]
        0x00000fc4:    610a        .a      STR      r2,[r1,#0x10]
        0x00000fc6:    690a        .i      LDR      r2,[r1,#0x10]
        0x00000fc8:    610a        .a      STR      r2,[r1,#0x10]
        0x00000fca:    6b41        Ak      LDR      r1,[r0,#0x34]
        0x00000fcc:    0889        ..      LSRS     r1,r1,#2
        0x00000fce:    0089        ..      LSLS     r1,r1,#2
        0x00000fd0:    6341        Ac      STR      r1,[r0,#0x34]
        0x00000fd2:    6b41        Ak      LDR      r1,[r0,#0x34]
        0x00000fd4:    2203        ."      MOVS     r2,#3
        0x00000fd6:    4311        .C      ORRS     r1,r1,r2
        0x00000fd8:    6341        Ac      STR      r1,[r0,#0x34]
        0x00000fda:    f000f8c9    ....    BL       SystemCoreClockUpdate ; 0x1170
        0x00000fde:    4906        .I      LDR      r1,[pc,#24] ; [0xff8] = 0x50000040
        0x00000fe0:    2000        .       MOVS     r0,#0
        0x00000fe2:    31c0        .1      ADDS     r1,r1,#0xc0
        0x00000fe4:    6008        .`      STR      r0,[r1,#0]
        0x00000fe6:    bd10        ..      POP      {r4,pc}
    $d
        0x00000fe8:    044aa200    ..J.    DCD    72000000
        0x00000fec:    57803d10    .=.W    DCD    1468022032
        0x00000ff0:    5ec00003    ...^    DCD    1589641219
        0x00000ff4:    5240000c    ..@R    DCD    1379926028
        0x00000ff8:    50000040    @..P    DCD    1342177344
    $t
    i.SYS_ResetChip
    SYS_ResetChip
        0x00000ffc:    2005        .       MOVS     r0,#5
        0x00000ffe:    0700        ..      LSLS     r0,r0,#28
        0x00001000:    6881        .h      LDR      r1,[r0,#8]
        0x00001002:    2201        ."      MOVS     r2,#1
        0x00001004:    4311        .C      ORRS     r1,r1,r2
        0x00001006:    6081        .`      STR      r1,[r0,#8]
        0x00001008:    4770        pG      BX       lr
    i.SYS_ResetModule
    SYS_ResetModule
        0x0000100a:    2105        .!      MOVS     r1,#5
        0x0000100c:    0e02        ..      LSRS     r2,r0,#24
        0x0000100e:    0709        ..      LSLS     r1,r1,#28
        0x00001010:    1851        Q.      ADDS     r1,r2,r1
        0x00001012:    688b        .h      LDR      r3,[r1,#8]
        0x00001014:    2201        ."      MOVS     r2,#1
        0x00001016:    4082        .@      LSLS     r2,r2,r0
        0x00001018:    4313        .C      ORRS     r3,r3,r2
        0x0000101a:    608b        .`      STR      r3,[r1,#8]
        0x0000101c:    6888        .h      LDR      r0,[r1,#8]
        0x0000101e:    4390        .C      BICS     r0,r0,r2
        0x00001020:    6088        .`      STR      r0,[r1,#8]
        0x00001022:    4770        pG      BX       lr
    i.SYS_UnlockReg
    SYS_UnlockReg
        0x00001024:    b510        ..      PUSH     {r4,lr}
        0x00001026:    2159        Y!      MOVS     r1,#0x59
        0x00001028:    2316        .#      MOVS     r3,#0x16
        0x0000102a:    4805        .H      LDR      r0,[pc,#20] ; [0x1040] = 0x50000100
        0x0000102c:    2288        ."      MOVS     r2,#0x88
        0x0000102e:    e002        ..      B        0x1036 ; SYS_UnlockReg + 18
        0x00001030:    6001        .`      STR      r1,[r0,#0]
        0x00001032:    6003        .`      STR      r3,[r0,#0]
        0x00001034:    6002        .`      STR      r2,[r0,#0]
        0x00001036:    6804        .h      LDR      r4,[r0,#0]
        0x00001038:    2c01        .,      CMP      r4,#1
        0x0000103a:    d1f9        ..      BNE      0x1030 ; SYS_UnlockReg + 12
        0x0000103c:    bd10        ..      POP      {r4,pc}
    $d
        0x0000103e:    0000        ..      DCW    0
        0x00001040:    50000100    ...P    DCD    1342177536
    $t
    i.SYS_UnlockReg
    SYS_UnlockReg
        0x00001044:    b510        ..      PUSH     {r4,lr}
        0x00001046:    2159        Y!      MOVS     r1,#0x59
        0x00001048:    2316        .#      MOVS     r3,#0x16
        0x0000104a:    4805        .H      LDR      r0,[pc,#20] ; [0x1060] = 0x50000100
        0x0000104c:    2288        ."      MOVS     r2,#0x88
        0x0000104e:    e002        ..      B        0x1056 ; SYS_UnlockReg + 18
        0x00001050:    6001        .`      STR      r1,[r0,#0]
        0x00001052:    6003        .`      STR      r3,[r0,#0]
        0x00001054:    6002        .`      STR      r2,[r0,#0]
        0x00001056:    6804        .h      LDR      r4,[r0,#0]
        0x00001058:    2c01        .,      CMP      r4,#1
        0x0000105a:    d1f9        ..      BNE      0x1050 ; SYS_UnlockReg + 12
        0x0000105c:    bd10        ..      POP      {r4,pc}
    $d
        0x0000105e:    0000        ..      DCW    0
        0x00001060:    50000100    ...P    DCD    1342177536
    $t
    i.SendChar_ToUART
    SendChar_ToUART
        0x00001064:    4906        .I      LDR      r1,[pc,#24] ; [0x1080] = 0x40050000
        0x00001066:    698a        .i      LDR      r2,[r1,#0x18]
        0x00001068:    0212        ..      LSLS     r2,r2,#8
        0x0000106a:    d4fc        ..      BMI      0x1066 ; SendChar_ToUART + 2
        0x0000106c:    6008        .`      STR      r0,[r1,#0]
        0x0000106e:    280a        .(      CMP      r0,#0xa
        0x00001070:    d104        ..      BNE      0x107c ; SendChar_ToUART + 24
        0x00001072:    6988        .i      LDR      r0,[r1,#0x18]
        0x00001074:    0200        ..      LSLS     r0,r0,#8
        0x00001076:    d4fc        ..      BMI      0x1072 ; SendChar_ToUART + 14
        0x00001078:    200d        .       MOVS     r0,#0xd
        0x0000107a:    6008        .`      STR      r0,[r1,#0]
        0x0000107c:    4770        pG      BX       lr
    $d
        0x0000107e:    0000        ..      DCW    0
        0x00001080:    40050000    ...@    DCD    1074069504
    $t
    i.SwitchToFunctionPin
    SwitchToFunctionPin
        0x00001084:    2205        ."      MOVS     r2,#5
        0x00001086:    b510        ..      PUSH     {r4,lr}
        0x00001088:    0712        ..      LSLS     r2,r2,#28
        0x0000108a:    2308        .#      MOVS     r3,#8
        0x0000108c:    4910        .I      LDR      r1,[pc,#64] ; [0x10d0] = 0x50000040
        0x0000108e:    2800        .(      CMP      r0,#0
        0x00001090:    d00c        ..      BEQ      0x10ac ; SwitchToFunctionPin + 40
        0x00001092:    2801        .(      CMP      r0,#1
        0x00001094:    d109        ..      BNE      0x10aa ; SwitchToFunctionPin + 38
        0x00001096:    6b90        .k      LDR      r0,[r2,#0x38]
        0x00001098:    4398        .C      BICS     r0,r0,r3
        0x0000109a:    6390        .c      STR      r0,[r2,#0x38]
        0x0000109c:    6b90        .k      LDR      r0,[r2,#0x38]
        0x0000109e:    4318        .C      ORRS     r0,r0,r3
        0x000010a0:    6390        .c      STR      r0,[r2,#0x38]
        0x000010a2:    6908        .i      LDR      r0,[r1,#0x10]
        0x000010a4:    6108        .a      STR      r0,[r1,#0x10]
        0x000010a6:    6908        .i      LDR      r0,[r1,#0x10]
        0x000010a8:    6108        .a      STR      r0,[r1,#0x10]
        0x000010aa:    bd10        ..      POP      {r4,pc}
        0x000010ac:    4c09        .L      LDR      r4,[pc,#36] ; [0x10d4] = 0x50004280
        0x000010ae:    2001        .       MOVS     r0,#1
        0x000010b0:    60e0        .`      STR      r0,[r4,#0xc]
        0x000010b2:    6b90        .k      LDR      r0,[r2,#0x38]
        0x000010b4:    4398        .C      BICS     r0,r0,r3
        0x000010b6:    6390        .c      STR      r0,[r2,#0x38]
        0x000010b8:    6b90        .k      LDR      r0,[r2,#0x38]
        0x000010ba:    6390        .c      STR      r0,[r2,#0x38]
        0x000010bc:    6908        .i      LDR      r0,[r1,#0x10]
        0x000010be:    6108        .a      STR      r0,[r1,#0x10]
        0x000010c0:    6908        .i      LDR      r0,[r1,#0x10]
        0x000010c2:    6108        .a      STR      r0,[r1,#0x10]
        0x000010c4:    2201        ."      MOVS     r2,#1
        0x000010c6:    2108        .!      MOVS     r1,#8
        0x000010c8:    4803        .H      LDR      r0,[pc,#12] ; [0x10d8] = 0x50004080
        0x000010ca:    f7fffdd3    ....    BL       GPIO_SetMode ; 0xc74
        0x000010ce:    bd10        ..      POP      {r4,pc}
    $d
        0x000010d0:    50000040    @..P    DCD    1342177344
        0x000010d4:    50004280    .B.P    DCD    1342194304
        0x000010d8:    50004080    .@.P    DCD    1342193792
    $t
    i.SysTick_Handler
    SysTick_Handler
        0x000010dc:    b500        ..      PUSH     {lr}
        0x000010de:    f000ff35    ..5.    BL       systick_counter ; 0x1f4c
        0x000010e2:    4903        .I      LDR      r1,[pc,#12] ; [0x10f0] = 0x2000002c
        0x000010e4:    6848        Hh      LDR      r0,[r1,#4]
        0x000010e6:    1c40        @.      ADDS     r0,r0,#1
        0x000010e8:    d100        ..      BNE      0x10ec ; SysTick_Handler + 16
        0x000010ea:    6048        H`      STR      r0,[r1,#4]
        0x000010ec:    bd00        ..      POP      {pc}
    $d
        0x000010ee:    0000        ..      DCW    0
        0x000010f0:    2000002c    ,..     DCD    536870956
    $t
    i.SysTick_enable
    SysTick_enable
        0x000010f4:    b510        ..      PUSH     {r4,lr}
        0x000010f6:    4b12        .K      LDR      r3,[pc,#72] ; [0x1140] = 0x2000002c
        0x000010f8:    2200        ."      MOVS     r2,#0
        0x000010fa:    605a        Z`      STR      r2,[r3,#4]
        0x000010fc:    4601        .F      MOV      r1,r0
        0x000010fe:    4811        .H      LDR      r0,[pc,#68] ; [0x1144] = 0x20000000
        0x00001100:    6800        .h      LDR      r0,[r0,#0]
        0x00001102:    f7fff81b    ....    BL       __aeabi_uidiv ; 0x13c
        0x00001106:    4910        .I      LDR      r1,[pc,#64] ; [0x1148] = 0xffffff
        0x00001108:    4288        .B      CMP      r0,r1
        0x0000110a:    d901        ..      BLS      0x1110 ; SysTick_enable + 28
        0x0000110c:    2001        .       MOVS     r0,#1
        0x0000110e:    e010        ..      B        0x1132 ; SysTick_enable + 62
        0x00001110:    0201        ..      LSLS     r1,r0,#8
        0x00001112:    0a09        ..      LSRS     r1,r1,#8
        0x00001114:    480d        .H      LDR      r0,[pc,#52] ; [0x114c] = 0xe000e000
        0x00001116:    1e49        I.      SUBS     r1,r1,#1
        0x00001118:    6141        Aa      STR      r1,[r0,#0x14]
        0x0000111a:    490d        .I      LDR      r1,[pc,#52] ; [0x1150] = 0xe000ed04
        0x0000111c:    2207        ."      MOVS     r2,#7
        0x0000111e:    69cb        .i      LDR      r3,[r1,#0x1c]
        0x00001120:    021b        ..      LSLS     r3,r3,#8
        0x00001122:    0a1b        ..      LSRS     r3,r3,#8
        0x00001124:    0444        D.      LSLS     r4,r0,#17
        0x00001126:    4323        #C      ORRS     r3,r3,r4
        0x00001128:    61cb        .a      STR      r3,[r1,#0x1c]
        0x0000112a:    2100        .!      MOVS     r1,#0
        0x0000112c:    6181        .a      STR      r1,[r0,#0x18]
        0x0000112e:    6102        .a      STR      r2,[r0,#0x10]
        0x00001130:    4608        .F      MOV      r0,r1
        0x00001132:    2800        .(      CMP      r0,#0
        0x00001134:    d003        ..      BEQ      0x113e ; SysTick_enable + 74
        0x00001136:    a007        ..      ADR      r0,{pc}+0x1e ; 0x1154
        0x00001138:    f000faa6    ....    BL       __0printf$8 ; 0x1688
        0x0000113c:    e7fe        ..      B        0x113c ; SysTick_enable + 72
        0x0000113e:    bd10        ..      POP      {r4,pc}
    $d
        0x00001140:    2000002c    ,..     DCD    536870956
        0x00001144:    20000000    ...     DCD    536870912
        0x00001148:    00ffffff    ....    DCD    16777215
        0x0000114c:    e000e000    ....    DCD    3758153728
        0x00001150:    e000ed04    ....    DCD    3758157060
        0x00001154:    20746553    Set     DCD    544499027
        0x00001158:    74737973    syst    DCD    1953724787
        0x0000115c:    74206d65    em t    DCD    1948282213
        0x00001160:    206b6369    ick     DCD    543908713
        0x00001164:    6f727265    erro    DCD    1869771365
        0x00001168:    0a212172    r!!.    DCD    169943410
        0x0000116c:    00000000    ....    DCD    0
    $t
    i.SystemCoreClockUpdate
    SystemCoreClockUpdate
        0x00001170:    b538        8.      PUSH     {r3-r5,lr}
        0x00001172:    a01d        ..      ADR      r0,{pc}+0x76 ; 0x11e8
        0x00001174:    6800        .h      LDR      r0,[r0,#0]
        0x00001176:    4c1d        .L      LDR      r4,[pc,#116] ; [0x11ec] = 0x50000200
        0x00001178:    9000        ..      STR      r0,[sp,#0]
        0x0000117a:    6a21        !j      LDR      r1,[r4,#0x20]
        0x0000117c:    1320         .      ASRS     r0,r4,#12
        0x0000117e:    4201        .B      TST      r1,r0
        0x00001180:    d001        ..      BEQ      0x1186 ; SystemCoreClockUpdate + 22
        0x00001182:    2000        .       MOVS     r0,#0
        0x00001184:    e016        ..      B        0x11b4 ; SystemCoreClockUpdate + 68
        0x00001186:    0308        ..      LSLS     r0,r1,#12
        0x00001188:    d501        ..      BPL      0x118e ; SystemCoreClockUpdate + 30
        0x0000118a:    4819        .H      LDR      r0,[pc,#100] ; [0x11f0] = 0x1518000
        0x0000118c:    e000        ..      B        0x1190 ; SystemCoreClockUpdate + 32
        0x0000118e:    4819        .H      LDR      r0,[pc,#100] ; [0x11f4] = 0xb71b00
        0x00001190:    038a        ..      LSLS     r2,r1,#14
        0x00001192:    d40f        ..      BMI      0x11b4 ; SystemCoreClockUpdate + 68
        0x00001194:    040a        ..      LSLS     r2,r1,#16
        0x00001196:    0f92        ..      LSRS     r2,r2,#30
        0x00001198:    466b        kF      MOV      r3,sp
        0x0000119a:    5c9b        .\      LDRB     r3,[r3,r2]
        0x0000119c:    05ca        ..      LSLS     r2,r1,#23
        0x0000119e:    0489        ..      LSLS     r1,r1,#18
        0x000011a0:    0dd2        ..      LSRS     r2,r2,#23
        0x000011a2:    0ec9        ..      LSRS     r1,r1,#27
        0x000011a4:    1c89        ..      ADDS     r1,r1,#2
        0x000011a6:    0880        ..      LSRS     r0,r0,#2
        0x000011a8:    1c92        ..      ADDS     r2,r2,#2
        0x000011aa:    4359        YC      MULS     r1,r3,r1
        0x000011ac:    4350        PC      MULS     r0,r2,r0
        0x000011ae:    f7feffc5    ....    BL       __aeabi_uidiv ; 0x13c
        0x000011b2:    0080        ..      LSLS     r0,r0,#2
        0x000011b4:    4d10        .M      LDR      r5,[pc,#64] ; [0x11f8] = 0x20000000
        0x000011b6:    60a8        .`      STR      r0,[r5,#8]
        0x000011b8:    6921        !i      LDR      r1,[r4,#0x10]
        0x000011ba:    0749        I.      LSLS     r1,r1,#29
        0x000011bc:    0f49        I.      LSRS     r1,r1,#29
        0x000011be:    2902        .)      CMP      r1,#2
        0x000011c0:    d003        ..      BEQ      0x11ca ; SystemCoreClockUpdate + 90
        0x000011c2:    0088        ..      LSLS     r0,r1,#2
        0x000011c4:    4629        )F      MOV      r1,r5
        0x000011c6:    310c        .1      ADDS     r1,r1,#0xc
        0x000011c8:    5808        .X      LDR      r0,[r1,r0]
        0x000011ca:    69a1        .i      LDR      r1,[r4,#0x18]
        0x000011cc:    0709        ..      LSLS     r1,r1,#28
        0x000011ce:    0f09        ..      LSRS     r1,r1,#28
        0x000011d0:    1c49        I.      ADDS     r1,r1,#1
        0x000011d2:    f7feffb3    ....    BL       __aeabi_uidiv ; 0x13c
        0x000011d6:    4909        .I      LDR      r1,[pc,#36] ; [0x11fc] = 0xf4240
        0x000011d8:    6028        (`      STR      r0,[r5,#0]
        0x000011da:    104a        J.      ASRS     r2,r1,#1
        0x000011dc:    1880        ..      ADDS     r0,r0,r2
        0x000011de:    f7feffad    ....    BL       __aeabi_uidiv ; 0x13c
        0x000011e2:    6068        h`      STR      r0,[r5,#4]
        0x000011e4:    bd38        8.      POP      {r3-r5,pc}
    $d
        0x000011e6:    0000        ..      DCW    0
        0x000011e8:    04020201    ....    DCD    67240449
        0x000011ec:    50000200    ...P    DCD    1342177792
        0x000011f0:    01518000    ..Q.    DCD    22118400
        0x000011f4:    00b71b00    ....    DCD    12000000
        0x000011f8:    20000000    ...     DCD    536870912
        0x000011fc:    000f4240    @B..    DCD    1000000
    $t
    i.SystemInit
    SystemInit
        0x00001200:    4770        pG      BX       lr
        0x00001202:    0000        ..      MOVS     r0,r0
    i.TIMER1_Init
    TIMER1_Init
        0x00001204:    b510        ..      PUSH     {r4,lr}
        0x00001206:    4c0a        .L      LDR      r4,[pc,#40] ; [0x1230] = 0x40010020
        0x00001208:    227d        }"      MOVS     r2,#0x7d
        0x0000120a:    2101        .!      MOVS     r1,#1
        0x0000120c:    00d2        ..      LSLS     r2,r2,#3
        0x0000120e:    06c9        ..      LSLS     r1,r1,#27
        0x00001210:    4620         F      MOV      r0,r4
        0x00001212:    f000f845    ..E.    BL       TIMER_Open ; 0x12a0
        0x00001216:    6820         h      LDR      r0,[r4,#0]
        0x00001218:    0621        !.      LSLS     r1,r4,#24
        0x0000121a:    4308        .C      ORRS     r0,r0,r1
        0x0000121c:    6020         `      STR      r0,[r4,#0]
        0x0000121e:    1508        ..      ASRS     r0,r1,#20
        0x00001220:    4904        .I      LDR      r1,[pc,#16] ; [0x1234] = 0xe000e100
        0x00001222:    6008        .`      STR      r0,[r1,#0]
        0x00001224:    6820         h      LDR      r0,[r4,#0]
        0x00001226:    0589        ..      LSLS     r1,r1,#22
        0x00001228:    4308        .C      ORRS     r0,r0,r1
        0x0000122a:    6020         `      STR      r0,[r4,#0]
        0x0000122c:    bd10        ..      POP      {r4,pc}
    $d
        0x0000122e:    0000        ..      DCW    0
        0x00001230:    40010020     ..@    DCD    1073807392
        0x00001234:    e000e100    ....    DCD    3758153984
    $t
    i.TIMER_GetModuleClock
    TIMER_GetModuleClock
        0x00001238:    b510        ..      PUSH     {r4,lr}
        0x0000123a:    b088        ..      SUB      sp,sp,#0x20
        0x0000123c:    4604        .F      MOV      r4,r0
        0x0000123e:    2220         "      MOVS     r2,#0x20
        0x00001240:    4912        .I      LDR      r1,[pc,#72] ; [0x128c] = 0x2028
        0x00001242:    4668        hF      MOV      r0,sp
        0x00001244:    f7feff90    ....    BL       __aeabi_memcpy ; 0x168
        0x00001248:    4911        .I      LDR      r1,[pc,#68] ; [0x1290] = 0x40010000
        0x0000124a:    4812        .H      LDR      r0,[pc,#72] ; [0x1294] = 0x50000200
        0x0000124c:    428c        .B      CMP      r4,r1
        0x0000124e:    d102        ..      BNE      0x1256 ; TIMER_GetModuleClock + 30
        0x00001250:    6940        @i      LDR      r0,[r0,#0x14]
        0x00001252:    0a00        ..      LSRS     r0,r0,#8
        0x00001254:    e00d        ..      B        0x1272 ; TIMER_GetModuleClock + 58
        0x00001256:    490e        .I      LDR      r1,[pc,#56] ; [0x1290] = 0x40010000
        0x00001258:    3120         1      ADDS     r1,r1,#0x20
        0x0000125a:    428c        .B      CMP      r4,r1
        0x0000125c:    d102        ..      BNE      0x1264 ; TIMER_GetModuleClock + 44
        0x0000125e:    6940        @i      LDR      r0,[r0,#0x14]
        0x00001260:    0b00        ..      LSRS     r0,r0,#12
        0x00001262:    e006        ..      B        0x1272 ; TIMER_GetModuleClock + 58
        0x00001264:    490c        .I      LDR      r1,[pc,#48] ; [0x1298] = 0x40110000
        0x00001266:    6940        @i      LDR      r0,[r0,#0x14]
        0x00001268:    428c        .B      CMP      r4,r1
        0x0000126a:    d101        ..      BNE      0x1270 ; TIMER_GetModuleClock + 56
        0x0000126c:    0c00        ..      LSRS     r0,r0,#16
        0x0000126e:    e000        ..      B        0x1272 ; TIMER_GetModuleClock + 58
        0x00001270:    0d00        ..      LSRS     r0,r0,#20
        0x00001272:    0740        @.      LSLS     r0,r0,#29
        0x00001274:    0f40        @.      LSRS     r0,r0,#29
        0x00001276:    2802        .(      CMP      r0,#2
        0x00001278:    d004        ..      BEQ      0x1284 ; TIMER_GetModuleClock + 76
        0x0000127a:    0080        ..      LSLS     r0,r0,#2
        0x0000127c:    4669        iF      MOV      r1,sp
        0x0000127e:    5808        .X      LDR      r0,[r1,r0]
        0x00001280:    b008        ..      ADD      sp,sp,#0x20
        0x00001282:    bd10        ..      POP      {r4,pc}
        0x00001284:    4805        .H      LDR      r0,[pc,#20] ; [0x129c] = 0x20000000
        0x00001286:    6800        .h      LDR      r0,[r0,#0]
        0x00001288:    e7fa        ..      B        0x1280 ; TIMER_GetModuleClock + 72
    $d
        0x0000128a:    0000        ..      DCW    0
        0x0000128c:    00002028    ( ..    DCD    8232
        0x00001290:    40010000    ...@    DCD    1073807360
        0x00001294:    50000200    ...P    DCD    1342177792
        0x00001298:    40110000    ...@    DCD    1074855936
        0x0000129c:    20000000    ...     DCD    536870912
    $t
    i.TIMER_Open
    TIMER_Open
        0x000012a0:    b5f7        ..      PUSH     {r0-r2,r4-r7,lr}
        0x000012a2:    4617        .F      MOV      r7,r2
        0x000012a4:    4606        .F      MOV      r6,r0
        0x000012a6:    f7ffffc7    ....    BL       TIMER_GetModuleClock ; 0x1238
        0x000012aa:    4605        .F      MOV      r5,r0
        0x000012ac:    2400        .$      MOVS     r4,#0
        0x000012ae:    0840        @.      LSRS     r0,r0,#1
        0x000012b0:    42b8        .B      CMP      r0,r7
        0x000012b2:    d201        ..      BCS      0x12b8 ; TIMER_Open + 24
        0x000012b4:    2002        .       MOVS     r0,#2
        0x000012b6:    e008        ..      B        0x12ca ; TIMER_Open + 42
        0x000012b8:    4639        9F      MOV      r1,r7
        0x000012ba:    4628        (F      MOV      r0,r5
        0x000012bc:    f7feff3e    ..>.    BL       __aeabi_uidiv ; 0x13c
        0x000012c0:    0e04        ..      LSRS     r4,r0,#24
        0x000012c2:    d002        ..      BEQ      0x12ca ; TIMER_Open + 42
        0x000012c4:    1c61        a.      ADDS     r1,r4,#1
        0x000012c6:    f7feff39    ..9.    BL       __aeabi_uidiv ; 0x13c
        0x000012ca:    9901        ..      LDR      r1,[sp,#4]
        0x000012cc:    4321        !C      ORRS     r1,r1,r4
        0x000012ce:    6031        1`      STR      r1,[r6,#0]
        0x000012d0:    6070        p`      STR      r0,[r6,#4]
        0x000012d2:    1c64        d.      ADDS     r4,r4,#1
        0x000012d4:    4360        `C      MULS     r0,r4,r0
        0x000012d6:    4601        .F      MOV      r1,r0
        0x000012d8:    4628        (F      MOV      r0,r5
        0x000012da:    f7feff2f    ../.    BL       __aeabi_uidiv ; 0x13c
        0x000012de:    bdfe        ..      POP      {r1-r7,pc}
    i.TMR1_IRQHandler
    TMR1_IRQHandler
        0x000012e0:    b570        p.      PUSH     {r4-r6,lr}
        0x000012e2:    4811        .H      LDR      r0,[pc,#68] ; [0x1328] = 0x40010020
        0x000012e4:    6881        .h      LDR      r1,[r0,#8]
        0x000012e6:    07c9        ..      LSLS     r1,r1,#31
        0x000012e8:    0fc9        ..      LSRS     r1,r1,#31
        0x000012ea:    d01c        ..      BEQ      0x1326 ; TMR1_IRQHandler + 70
        0x000012ec:    2601        .&      MOVS     r6,#1
        0x000012ee:    6086        .`      STR      r6,[r0,#8]
        0x000012f0:    f000fe34    ..4.    BL       tick_counter ; 0x1f5c
        0x000012f4:    4d0d        .M      LDR      r5,[pc,#52] ; [0x132c] = 0x2000002c
        0x000012f6:    68a8        .h      LDR      r0,[r5,#8]
        0x000012f8:    217d        }!      MOVS     r1,#0x7d
        0x000012fa:    00c9        ..      LSLS     r1,r1,#3
        0x000012fc:    f7feff1e    ....    BL       __aeabi_uidiv ; 0x13c
        0x00001300:    462c        ,F      MOV      r4,r5
        0x00001302:    3418        .4      ADDS     r4,r4,#0x18
        0x00001304:    2900        .)      CMP      r1,#0
        0x00001306:    d102        ..      BNE      0x130e ; TMR1_IRQHandler + 46
        0x00001308:    6820         h      LDR      r0,[r4,#0]
        0x0000130a:    4330        0C      ORRS     r0,r0,r6
        0x0000130c:    6020         `      STR      r0,[r4,#0]
        0x0000130e:    68a8        .h      LDR      r0,[r5,#8]
        0x00001310:    21ff        .!      MOVS     r1,#0xff
        0x00001312:    31f5        .1      ADDS     r1,r1,#0xf5
        0x00001314:    f7feff12    ....    BL       __aeabi_uidiv ; 0x13c
        0x00001318:    2900        .)      CMP      r1,#0
        0x0000131a:    d103        ..      BNE      0x1324 ; TMR1_IRQHandler + 68
        0x0000131c:    6820         h      LDR      r0,[r4,#0]
        0x0000131e:    2102        .!      MOVS     r1,#2
        0x00001320:    4308        .C      ORRS     r0,r0,r1
        0x00001322:    6020         `      STR      r0,[r4,#0]
        0x00001324:    68a8        .h      LDR      r0,[r5,#8]
        0x00001326:    bd70        p.      POP      {r4-r6,pc}
    $d
        0x00001328:    40010020     ..@    DCD    1073807392
        0x0000132c:    2000002c    ,..     DCD    536870956
    $t
    i.UART02_IRQHandler
    UART02_IRQHandler
        0x00001330:    b510        ..      PUSH     {r4,lr}
        0x00001332:    4c06        .L      LDR      r4,[pc,#24] ; [0x134c] = 0x40050000
        0x00001334:    69e0        .i      LDR      r0,[r4,#0x1c]
        0x00001336:    21ff        .!      MOVS     r1,#0xff
        0x00001338:    3111        .1      ADDS     r1,r1,#0x11
        0x0000133a:    4208        .B      TST      r0,r1
        0x0000133c:    d102        ..      BNE      0x1344 ; UART02_IRQHandler + 20
        0x0000133e:    bd10        ..      POP      {r4,pc}
        0x00001340:    f000f8d8    ....    BL       UARTx_Process ; 0x14f4
        0x00001344:    69a0        .i      LDR      r0,[r4,#0x18]
        0x00001346:    0440        @.      LSLS     r0,r0,#17
        0x00001348:    d5fa        ..      BPL      0x1340 ; UART02_IRQHandler + 16
        0x0000134a:    bd10        ..      POP      {r4,pc}
    $d
        0x0000134c:    40050000    ...@    DCD    1074069504
    $t
    i.UART0_Init
    UART0_Init
        0x00001350:    b510        ..      PUSH     {r4,lr}
        0x00001352:    4818        .H      LDR      r0,[pc,#96] ; [0x13b4] = 0x4000010
        0x00001354:    f7fffe59    ..Y.    BL       SYS_ResetModule ; 0x100a
        0x00001358:    4c17        .L      LDR      r4,[pc,#92] ; [0x13b8] = 0x40050000
        0x0000135a:    21e1        .!      MOVS     r1,#0xe1
        0x0000135c:    0249        I.      LSLS     r1,r1,#9
        0x0000135e:    4620         F      MOV      r0,r4
        0x00001360:    f000f884    ....    BL       UART_Open ; 0x146c
        0x00001364:    2111        .!      MOVS     r1,#0x11
        0x00001366:    4620         F      MOV      r0,r4
        0x00001368:    f000f868    ..h.    BL       UART_EnableInt ; 0x143c
        0x0000136c:    2001        .       MOVS     r0,#1
        0x0000136e:    4913        .I      LDR      r1,[pc,#76] ; [0x13bc] = 0xe000e100
        0x00001370:    0300        ..      LSLS     r0,r0,#12
        0x00001372:    6008        .`      STR      r0,[r1,#0]
        0x00001374:    f7fff85a    ..Z.    BL       CLK_GetCPUFreq ; 0x42c
        0x00001378:    4601        .F      MOV      r1,r0
        0x0000137a:    a011        ..      ADR      r0,{pc}+0x46 ; 0x13c0
        0x0000137c:    f000f984    ....    BL       __0printf$8 ; 0x1688
        0x00001380:    f7fff85c    ..\.    BL       CLK_GetHCLKFreq ; 0x43c
        0x00001384:    4601        .F      MOV      r1,r0
        0x00001386:    a015        ..      ADR      r0,{pc}+0x56 ; 0x13dc
        0x00001388:    f000f97e    ..~.    BL       __0printf$8 ; 0x1688
        0x0000138c:    f7fff85e    ..^.    BL       CLK_GetHXTFreq ; 0x44c
        0x00001390:    4601        .F      MOV      r1,r0
        0x00001392:    a018        ..      ADR      r0,{pc}+0x62 ; 0x13f4
        0x00001394:    f000f978    ..x.    BL       __0printf$8 ; 0x1688
        0x00001398:    f7fff862    ..b.    BL       CLK_GetLXTFreq ; 0x460
        0x0000139c:    4601        .F      MOV      r1,r0
        0x0000139e:    a01b        ..      ADR      r0,{pc}+0x6e ; 0x140c
        0x000013a0:    f000f972    ..r.    BL       __0printf$8 ; 0x1688
        0x000013a4:    f7fff868    ..h.    BL       CLK_GetPCLKFreq ; 0x478
        0x000013a8:    4601        .F      MOV      r1,r0
        0x000013aa:    a01e        ..      ADR      r0,{pc}+0x7a ; 0x1424
        0x000013ac:    f000f96c    ..l.    BL       __0printf$8 ; 0x1688
        0x000013b0:    bd10        ..      POP      {r4,pc}
    $d
        0x000013b2:    0000        ..      DCW    0
        0x000013b4:    04000010    ....    DCD    67108880
        0x000013b8:    40050000    ...@    DCD    1074069504
        0x000013bc:    e000e100    ....    DCD    3758153984
        0x000013c0:    4c430a0d    ..CL    DCD    1279461901
        0x000013c4:    65475f4b    K_Ge    DCD    1699176267
        0x000013c8:    55504374    tCPU    DCD    1431323508
        0x000013cc:    71657246    Freq    DCD    1902473798
        0x000013d0:    25203a20     : %    DCD    622869024
        0x000013d4:    0a0d6438    8d..    DCD    168649784
        0x000013d8:    00000000    ....    DCD    0
        0x000013dc:    5f4b4c43    CLK_    DCD    1598770243
        0x000013e0:    48746547    GetH    DCD    1215587655
        0x000013e4:    464b4c43    CLKF    DCD    1179339843
        0x000013e8:    20716572    req     DCD    544302450
        0x000013ec:    3825203a    : %8    DCD    941957178
        0x000013f0:    000a0d64    d...    DCD    658788
        0x000013f4:    5f4b4c43    CLK_    DCD    1598770243
        0x000013f8:    48746547    GetH    DCD    1215587655
        0x000013fc:    72465458    XTFr    DCD    1917211736
        0x00001400:    3a207165    eq :    DCD    975204709
        0x00001404:    64382520     %8d    DCD    1681401120
        0x00001408:    00000a0d    ....    DCD    2573
        0x0000140c:    5f4b4c43    CLK_    DCD    1598770243
        0x00001410:    4c746547    GetL    DCD    1282696519
        0x00001414:    72465458    XTFr    DCD    1917211736
        0x00001418:    3a207165    eq :    DCD    975204709
        0x0000141c:    64382520     %8d    DCD    1681401120
        0x00001420:    00000a0d    ....    DCD    2573
        0x00001424:    5f4b4c43    CLK_    DCD    1598770243
        0x00001428:    50746547    GetP    DCD    1349805383
        0x0000142c:    464b4c43    CLKF    DCD    1179339843
        0x00001430:    20716572    req     DCD    544302450
        0x00001434:    3825203a    : %8    DCD    941957178
        0x00001438:    000a0d64    d...    DCD    658788
    $t
    i.UART_EnableInt
    UART_EnableInt
        0x0000143c:    6842        Bh      LDR      r2,[r0,#4]
        0x0000143e:    430a        .C      ORRS     r2,r2,r1
        0x00001440:    6042        B`      STR      r2,[r0,#4]
        0x00001442:    4b07        .K      LDR      r3,[pc,#28] ; [0x1460] = 0x40050000
        0x00001444:    2201        ."      MOVS     r2,#1
        0x00001446:    0312        ..      LSLS     r2,r2,#12
        0x00001448:    4906        .I      LDR      r1,[pc,#24] ; [0x1464] = 0xe000e100
        0x0000144a:    4298        .B      CMP      r0,r3
        0x0000144c:    d101        ..      BNE      0x1452 ; UART_EnableInt + 22
        0x0000144e:    600a        .`      STR      r2,[r1,#0]
        0x00001450:    4770        pG      BX       lr
        0x00001452:    4b05        .K      LDR      r3,[pc,#20] ; [0x1468] = 0x40150000
        0x00001454:    4298        .B      CMP      r0,r3
        0x00001456:    d1fa        ..      BNE      0x144e ; UART_EnableInt + 18
        0x00001458:    2001        .       MOVS     r0,#1
        0x0000145a:    0340        @.      LSLS     r0,r0,#13
        0x0000145c:    6008        .`      STR      r0,[r1,#0]
        0x0000145e:    4770        pG      BX       lr
    $d
        0x00001460:    40050000    ...@    DCD    1074069504
        0x00001464:    e000e100    ....    DCD    3758153984
        0x00001468:    40150000    ...@    DCD    1075118080
    $t
    i.UART_Open
    UART_Open
        0x0000146c:    b5f0        ..      PUSH     {r4-r7,lr}
        0x0000146e:    4604        .F      MOV      r4,r0
        0x00001470:    481c        .H      LDR      r0,[pc,#112] ; [0x14e4] = 0x1fc0
        0x00001472:    460d        .F      MOV      r5,r1
        0x00001474:    c80f        ..      LDM      r0,{r0-r3}
        0x00001476:    b085        ..      SUB      sp,sp,#0x14
        0x00001478:    466e        nF      MOV      r6,sp
        0x0000147a:    c60f        ..      STM      r6!,{r0-r3}
        0x0000147c:    481a        .H      LDR      r0,[pc,#104] ; [0x14e8] = 0x50000200
        0x0000147e:    6941        Ai      LDR      r1,[r0,#0x14]
        0x00001480:    6980        .i      LDR      r0,[r0,#0x18]
        0x00001482:    018a        ..      LSLS     r2,r1,#6
        0x00001484:    2103        .!      MOVS     r1,#3
        0x00001486:    0f96        ..      LSRS     r6,r2,#30
        0x00001488:    0500        ..      LSLS     r0,r0,#20
        0x0000148a:    0f07        ..      LSRS     r7,r0,#28
        0x0000148c:    2000        .       MOVS     r0,#0
        0x0000148e:    6320         c      STR      r0,[r4,#0x30]
        0x00001490:    60e1        .`      STR      r1,[r4,#0xc]
        0x00001492:    68a0        .h      LDR      r0,[r4,#8]
        0x00001494:    4915        .I      LDR      r1,[pc,#84] ; [0x14ec] = 0xfff0ff0f
        0x00001496:    4008        .@      ANDS     r0,r0,r1
        0x00001498:    60a0        .`      STR      r0,[r4,#8]
        0x0000149a:    2e01        ..      CMP      r6,#1
        0x0000149c:    d102        ..      BNE      0x14a4 ; UART_Open + 56
        0x0000149e:    f7fefff3    ....    BL       CLK_GetPLLClockFreq ; 0x488
        0x000014a2:    9001        ..      STR      r0,[sp,#4]
        0x000014a4:    2d00        .-      CMP      r5,#0
        0x000014a6:    d01b        ..      BEQ      0x14e0 ; UART_Open + 116
        0x000014a8:    00b1        ..      LSLS     r1,r6,#2
        0x000014aa:    4668        hF      MOV      r0,sp
        0x000014ac:    5840        @X      LDR      r0,[r0,r1]
        0x000014ae:    1c79        y.      ADDS     r1,r7,#1
        0x000014b0:    f7fefe44    ..D.    BL       __aeabi_uidiv ; 0x13c
        0x000014b4:    4606        .F      MOV      r6,r0
        0x000014b6:    0869        i.      LSRS     r1,r5,#1
        0x000014b8:    1840        @.      ADDS     r0,r0,r1
        0x000014ba:    4629        )F      MOV      r1,r5
        0x000014bc:    f7fefe3e    ..>.    BL       __aeabi_uidiv ; 0x13c
        0x000014c0:    490b        .I      LDR      r1,[pc,#44] ; [0x14f0] = 0xffff
        0x000014c2:    1e80        ..      SUBS     r0,r0,#2
        0x000014c4:    4288        .B      CMP      r0,r1
        0x000014c6:    d907        ..      BLS      0x14d8 ; UART_Open + 108
        0x000014c8:    00e9        ..      LSLS     r1,r5,#3
        0x000014ca:    1870        p.      ADDS     r0,r6,r1
        0x000014cc:    4629        )F      MOV      r1,r5
        0x000014ce:    f7fefe35    ..5.    BL       __aeabi_uidiv ; 0x13c
        0x000014d2:    0900        ..      LSRS     r0,r0,#4
        0x000014d4:    1e80        ..      SUBS     r0,r0,#2
        0x000014d6:    e002        ..      B        0x14de ; UART_Open + 114
        0x000014d8:    2103        .!      MOVS     r1,#3
        0x000014da:    0709        ..      LSLS     r1,r1,#28
        0x000014dc:    4308        .C      ORRS     r0,r0,r1
        0x000014de:    6260        `b      STR      r0,[r4,#0x24]
        0x000014e0:    b005        ..      ADD      sp,sp,#0x14
        0x000014e2:    bdf0        ..      POP      {r4-r7,pc}
    $d
        0x000014e4:    00001fc0    ....    DCD    8128
        0x000014e8:    50000200    ...P    DCD    1342177792
        0x000014ec:    fff0ff0f    ....    DCD    4293984015
        0x000014f0:    0000ffff    ....    DCD    65535
    $t
    i.UARTx_Process
    UARTx_Process
        0x000014f4:    b510        ..      PUSH     {r4,lr}
        0x000014f6:    4819        .H      LDR      r0,[pc,#100] ; [0x155c] = 0x40050000
        0x000014f8:    6800        .h      LDR      r0,[r0,#0]
        0x000014fa:    b2c4        ..      UXTB     r4,r0
        0x000014fc:    2c7f        .,      CMP      r4,#0x7f
        0x000014fe:    d903        ..      BLS      0x1508 ; UARTx_Process + 20
        0x00001500:    a017        ..      ADR      r0,{pc}+0x60 ; 0x1560
        0x00001502:    f000f8c1    ....    BL       __0printf$8 ; 0x1688
        0x00001506:    bd10        ..      POP      {r4,pc}
        0x00001508:    4621        !F      MOV      r1,r4
        0x0000150a:    a01a        ..      ADR      r0,{pc}+0x6a ; 0x1574
        0x0000150c:    f000f8bc    ....    BL       __0printf$8 ; 0x1688
        0x00001510:    2c58        X,      CMP      r4,#0x58
        0x00001512:    d012        ..      BEQ      0x153a ; UARTx_Process + 70
        0x00001514:    dc0b        ..      BGT      0x152e ; UARTx_Process + 58
        0x00001516:    481b        .H      LDR      r0,[pc,#108] ; [0x1584] = 0x20000044
        0x00001518:    2c30        0,      CMP      r4,#0x30
        0x0000151a:    d013        ..      BEQ      0x1544 ; UARTx_Process + 80
        0x0000151c:    2c31        1,      CMP      r4,#0x31
        0x0000151e:    d014        ..      BEQ      0x154a ; UARTx_Process + 86
        0x00001520:    2c32        2,      CMP      r4,#0x32
        0x00001522:    d017        ..      BEQ      0x1554 ; UARTx_Process + 96
        0x00001524:    2c33        3,      CMP      r4,#0x33
        0x00001526:    d1ee        ..      BNE      0x1506 ; UARTx_Process + 18
        0x00001528:    2220         "      MOVS     r2,#0x20
        0x0000152a:    6801        .h      LDR      r1,[r0,#0]
        0x0000152c:    e00f        ..      B        0x154e ; UARTx_Process + 90
        0x0000152e:    2c5a        Z,      CMP      r4,#0x5a
        0x00001530:    d003        ..      BEQ      0x153a ; UARTx_Process + 70
        0x00001532:    2c78        x,      CMP      r4,#0x78
        0x00001534:    d001        ..      BEQ      0x153a ; UARTx_Process + 70
        0x00001536:    2c7a        z,      CMP      r4,#0x7a
        0x00001538:    d1e5        ..      BNE      0x1506 ; UARTx_Process + 18
        0x0000153a:    f7fffd73    ..s.    BL       SYS_UnlockReg ; 0x1024
        0x0000153e:    f7fffd5d    ..].    BL       SYS_ResetChip ; 0xffc
        0x00001542:    bd10        ..      POP      {r4,pc}
        0x00001544:    2204        ."      MOVS     r2,#4
        0x00001546:    6801        .h      LDR      r1,[r0,#0]
        0x00001548:    e001        ..      B        0x154e ; UARTx_Process + 90
        0x0000154a:    6801        .h      LDR      r1,[r0,#0]
        0x0000154c:    2208        ."      MOVS     r2,#8
        0x0000154e:    4311        .C      ORRS     r1,r1,r2
        0x00001550:    6001        .`      STR      r1,[r0,#0]
        0x00001552:    bd10        ..      POP      {r4,pc}
        0x00001554:    2210        ."      MOVS     r2,#0x10
        0x00001556:    6801        .h      LDR      r1,[r0,#0]
        0x00001558:    e7f9        ..      B        0x154e ; UARTx_Process + 90
    $d
        0x0000155a:    0000        ..      DCW    0
        0x0000155c:    40050000    ...@    DCD    1074069504
        0x00001560:    61766e69    inva    DCD    1635151465
        0x00001564:    2064696c    lid     DCD    543451500
        0x00001568:    6d6d6f63    comm    DCD    1835888483
        0x0000156c:    0d646e61    and.    DCD    224685665
        0x00001570:    0000000a    ....    DCD    10
        0x00001574:    73657270    pres    DCD    1936028272
        0x00001578:    203a2073    s :     DCD    540680307
        0x0000157c:    0a0d6325    %c..    DCD    168649509
        0x00001580:    00000000    ....    DCD    0
        0x00001584:    20000044    D..     DCD    536870980
    $t
    i.Write_SPI_Mode_Record
    Write_SPI_Mode_Record
        0x00001588:    b570        p.      PUSH     {r4-r6,lr}
        0x0000158a:    4e1d        .N      LDR      r6,[pc,#116] ; [0x1600] = 0x2000002c
        0x0000158c:    4605        .F      MOV      r5,r0
        0x0000158e:    2000        .       MOVS     r0,#0
        0x00001590:    4632        2F      MOV      r2,r6
        0x00001592:    320c        .2      ADDS     r2,r2,#0xc
        0x00001594:    2104        .!      MOVS     r1,#4
        0x00001596:    6170        pa      STR      r0,[r6,#0x14]
        0x00001598:    f7fffa16    ....    BL       DataFlashRead ; 0x9c8
        0x0000159c:    4629        )F      MOV      r1,r5
        0x0000159e:    a019        ..      ADR      r0,{pc}+0x66 ; 0x1604
        0x000015a0:    f000f872    ..r.    BL       __0printf$8 ; 0x1688
        0x000015a4:    4634        4F      MOV      r4,r6
        0x000015a6:    340c        .4      ADDS     r4,r4,#0xc
        0x000015a8:    6822        "h      LDR      r2,[r4,#0]
        0x000015aa:    42aa        .B      CMP      r2,r5
        0x000015ac:    d104        ..      BNE      0x15b8 ; Write_SPI_Mode_Record + 48
        0x000015ae:    491b        .I      LDR      r1,[pc,#108] ; [0x161c] = 0x1f7c
        0x000015b0:    a01b        ..      ADR      r0,{pc}+0x70 ; 0x1620
        0x000015b2:    f000f869    ..i.    BL       __0printf$8 ; 0x1688
        0x000015b6:    bd70        p.      POP      {r4-r6,pc}
        0x000015b8:    4a11        .J      LDR      r2,[pc,#68] ; [0x1600] = 0x2000002c
        0x000015ba:    6025        %`      STR      r5,[r4,#0]
        0x000015bc:    320c        .2      ADDS     r2,r2,#0xc
        0x000015be:    2104        .!      MOVS     r1,#4
        0x000015c0:    6970        pi      LDR      r0,[r6,#0x14]
        0x000015c2:    f7fffa43    ..C.    BL       DataFlashWrite ; 0xa4c
        0x000015c6:    4915        .I      LDR      r1,[pc,#84] ; [0x161c] = 0x1f7c
        0x000015c8:    a01e        ..      ADR      r0,{pc}+0x7c ; 0x1644
        0x000015ca:    6822        "h      LDR      r2,[r4,#0]
        0x000015cc:    f000f85c    ..\.    BL       __0printf$8 ; 0x1688
        0x000015d0:    4a0b        .J      LDR      r2,[pc,#44] ; [0x1600] = 0x2000002c
        0x000015d2:    2104        .!      MOVS     r1,#4
        0x000015d4:    320c        .2      ADDS     r2,r2,#0xc
        0x000015d6:    6970        pi      LDR      r0,[r6,#0x14]
        0x000015d8:    f7fff9f6    ....    BL       DataFlashRead ; 0x9c8
        0x000015dc:    490f        .I      LDR      r1,[pc,#60] ; [0x161c] = 0x1f7c
        0x000015de:    a01f        ..      ADR      r0,{pc}+0x7e ; 0x165c
        0x000015e0:    6822        "h      LDR      r2,[r4,#0]
        0x000015e2:    f000f851    ..Q.    BL       __0printf$8 ; 0x1688
        0x000015e6:    a024        $.      ADR      r0,{pc}+0x92 ; 0x1678
        0x000015e8:    f000f84e    ..N.    BL       __0printf$8 ; 0x1688
        0x000015ec:    4825        %H      LDR      r0,[pc,#148] ; [0x1684] = 0x40050000
        0x000015ee:    6981        .i      LDR      r1,[r0,#0x18]
        0x000015f0:    00c9        ..      LSLS     r1,r1,#3
        0x000015f2:    d5fc        ..      BPL      0x15ee ; Write_SPI_Mode_Record + 102
        0x000015f4:    f7fffd16    ....    BL       SYS_UnlockReg ; 0x1024
        0x000015f8:    f7fffd00    ....    BL       SYS_ResetChip ; 0xffc
        0x000015fc:    bd70        p.      POP      {r4-r6,pc}
    $d
        0x000015fe:    0000        ..      DCW    0
        0x00001600:    2000002c    ,..     DCD    536870956
        0x00001604:    67726174    targ    DCD    1735549300
        0x00001608:    6d207465    et m    DCD    1830843493
        0x0000160c:    3a65646f    ode:    DCD    979723375
        0x00001610:    30257830    0x%0    DCD    807761968
        0x00001614:    0a0d5834    4X..    DCD    168646708
        0x00001618:    00000000    ....    DCD    0
        0x0000161c:    00001f7c    |...    DCD    8060
        0x00001620:    523a7325    %s:R    DCD    1379562277
        0x00001624:    20646165    ead     DCD    543449445
        0x00001628:    65646f6d    mode    DCD    1701080941
        0x0000162c:    204f4e28    (NO     DCD    542068264
        0x00001630:    6e616863    chan    DCD    1851877475
        0x00001634:    20296567    ge)     DCD    539583847
        0x00001638:    30257830    0x%0    DCD    807761968
        0x0000163c:    0a0d5834    4X..    DCD    168646708
        0x00001640:    00000000    ....    DCD    0
        0x00001644:    573a7325    %s:W    DCD    1463448357
        0x00001648:    65746972    rite    DCD    1702127986
        0x0000164c:    646f6d20     mod    DCD    1685024032
        0x00001650:    78302065    e 0x    DCD    2016419941
        0x00001654:    58343025    %04X    DCD    1479815205
        0x00001658:    00000a0d    ....    DCD    2573
        0x0000165c:    523a7325    %s:R    DCD    1379562277
        0x00001660:    20646165    ead     DCD    543449445
        0x00001664:    65646f6d    mode    DCD    1701080941
        0x00001668:    3a5d305b    [0]:    DCD    979185755
        0x0000166c:    30257830    0x%0    DCD    807761968
        0x00001670:    0a0d5834    4X..    DCD    168646708
        0x00001674:    00000000    ....    DCD    0
        0x00001678:    6f626572    rebo    DCD    1868719474
        0x0000167c:    0a0d746f    ot..    DCD    168653935
        0x00001680:    00000000    ....    DCD    0
        0x00001684:    40050000    ...@    DCD    1074069504
    $t
    i.__0printf$8
    __0printf$8
    __1printf$8
    __2printf
        0x00001688:    b40f        ..      PUSH     {r0-r3}
        0x0000168a:    b510        ..      PUSH     {r4,lr}
        0x0000168c:    a903        ..      ADD      r1,sp,#0xc
        0x0000168e:    4b04        .K      LDR      r3,[pc,#16] ; [0x16a0] = 0x1de1
        0x00001690:    4a04        .J      LDR      r2,[pc,#16] ; [0x16a4] = 0x20000048
        0x00001692:    9802        ..      LDR      r0,[sp,#8]
        0x00001694:    f000f818    ....    BL       _printf_core ; 0x16c8
        0x00001698:    bc10        ..      POP      {r4}
        0x0000169a:    bc08        ..      POP      {r3}
        0x0000169c:    b004        ..      ADD      sp,sp,#0x10
        0x0000169e:    4718        .G      BX       r3
    $d
        0x000016a0:    00001de1    ....    DCD    7649
        0x000016a4:    20000048    H..     DCD    536870984
    $t
    i.__scatterload_copy
    __scatterload_copy
        0x000016a8:    e002        ..      B        0x16b0 ; __scatterload_copy + 8
        0x000016aa:    c808        ..      LDM      r0!,{r3}
        0x000016ac:    1f12        ..      SUBS     r2,r2,#4
        0x000016ae:    c108        ..      STM      r1!,{r3}
        0x000016b0:    2a00        .*      CMP      r2,#0
        0x000016b2:    d1fa        ..      BNE      0x16aa ; __scatterload_copy + 2
        0x000016b4:    4770        pG      BX       lr
    i.__scatterload_null
    __scatterload_null
        0x000016b6:    4770        pG      BX       lr
    i.__scatterload_zeroinit
    __scatterload_zeroinit
        0x000016b8:    2000        .       MOVS     r0,#0
        0x000016ba:    e001        ..      B        0x16c0 ; __scatterload_zeroinit + 8
        0x000016bc:    c101        ..      STM      r1!,{r0}
        0x000016be:    1f12        ..      SUBS     r2,r2,#4
        0x000016c0:    2a00        .*      CMP      r2,#0
        0x000016c2:    d1fb        ..      BNE      0x16bc ; __scatterload_zeroinit + 4
        0x000016c4:    4770        pG      BX       lr
        0x000016c6:    0000        ..      MOVS     r0,r0
    i._printf_core
    _printf_core
        0x000016c8:    b5ff        ..      PUSH     {r0-r7,lr}
        0x000016ca:    b091        ..      SUB      sp,sp,#0x44
        0x000016cc:    460f        .F      MOV      r7,r1
        0x000016ce:    4605        .F      MOV      r5,r0
        0x000016d0:    2600        .&      MOVS     r6,#0
        0x000016d2:    e006        ..      B        0x16e2 ; _printf_core + 26
        0x000016d4:    2825        %(      CMP      r0,#0x25
        0x000016d6:    d00a        ..      BEQ      0x16ee ; _printf_core + 38
        0x000016d8:    9a14        ..      LDR      r2,[sp,#0x50]
        0x000016da:    9913        ..      LDR      r1,[sp,#0x4c]
        0x000016dc:    4790        .G      BLX      r2
        0x000016de:    1c6d        m.      ADDS     r5,r5,#1
        0x000016e0:    1c76        v.      ADDS     r6,r6,#1
        0x000016e2:    7828        (x      LDRB     r0,[r5,#0]
        0x000016e4:    2800        .(      CMP      r0,#0
        0x000016e6:    d1f5        ..      BNE      0x16d4 ; _printf_core + 12
        0x000016e8:    4630        0F      MOV      r0,r6
        0x000016ea:    b015        ..      ADD      sp,sp,#0x54
        0x000016ec:    bdf0        ..      POP      {r4-r7,pc}
        0x000016ee:    2400        .$      MOVS     r4,#0
        0x000016f0:    9400        ..      STR      r4,[sp,#0]
        0x000016f2:    2101        .!      MOVS     r1,#1
        0x000016f4:    4af3        .J      LDR      r2,[pc,#972] ; [0x1ac4] = 0x12809
        0x000016f6:    9402        ..      STR      r4,[sp,#8]
        0x000016f8:    e000        ..      B        0x16fc ; _printf_core + 52
        0x000016fa:    4304        .C      ORRS     r4,r4,r0
        0x000016fc:    1c6d        m.      ADDS     r5,r5,#1
        0x000016fe:    782b        +x      LDRB     r3,[r5,#0]
        0x00001700:    4608        .F      MOV      r0,r1
        0x00001702:    3b20         ;      SUBS     r3,r3,#0x20
        0x00001704:    4098        .@      LSLS     r0,r0,r3
        0x00001706:    4210        .B      TST      r0,r2
        0x00001708:    d1f7        ..      BNE      0x16fa ; _printf_core + 50
        0x0000170a:    7828        (x      LDRB     r0,[r5,#0]
        0x0000170c:    282a        *(      CMP      r0,#0x2a
        0x0000170e:    d00e        ..      BEQ      0x172e ; _printf_core + 102
        0x00001710:    2102        .!      MOVS     r1,#2
        0x00001712:    7828        (x      LDRB     r0,[r5,#0]
        0x00001714:    4602        .F      MOV      r2,r0
        0x00001716:    3a30        0:      SUBS     r2,r2,#0x30
        0x00001718:    2a09        .*      CMP      r2,#9
        0x0000171a:    d815        ..      BHI      0x1748 ; _printf_core + 128
        0x0000171c:    9a00        ..      LDR      r2,[sp,#0]
        0x0000171e:    230a        .#      MOVS     r3,#0xa
        0x00001720:    435a        ZC      MULS     r2,r3,r2
        0x00001722:    3a30        0:      SUBS     r2,r2,#0x30
        0x00001724:    1880        ..      ADDS     r0,r0,r2
        0x00001726:    430c        .C      ORRS     r4,r4,r1
        0x00001728:    1c6d        m.      ADDS     r5,r5,#1
        0x0000172a:    9000        ..      STR      r0,[sp,#0]
        0x0000172c:    e7f1        ..      B        0x1712 ; _printf_core + 74
        0x0000172e:    cf01        ..      LDM      r7!,{r0}
        0x00001730:    9000        ..      STR      r0,[sp,#0]
        0x00001732:    2800        .(      CMP      r0,#0
        0x00001734:    da05        ..      BGE      0x1742 ; _printf_core + 122
        0x00001736:    2001        .       MOVS     r0,#1
        0x00001738:    0340        @.      LSLS     r0,r0,#13
        0x0000173a:    4304        .C      ORRS     r4,r4,r0
        0x0000173c:    9800        ..      LDR      r0,[sp,#0]
        0x0000173e:    4240        @B      RSBS     r0,r0,#0
        0x00001740:    9000        ..      STR      r0,[sp,#0]
        0x00001742:    2002        .       MOVS     r0,#2
        0x00001744:    4304        .C      ORRS     r4,r4,r0
        0x00001746:    1c6d        m.      ADDS     r5,r5,#1
        0x00001748:    7828        (x      LDRB     r0,[r5,#0]
        0x0000174a:    282e        .(      CMP      r0,#0x2e
        0x0000174c:    d115        ..      BNE      0x177a ; _printf_core + 178
        0x0000174e:    2004        .       MOVS     r0,#4
        0x00001750:    4304        .C      ORRS     r4,r4,r0
        0x00001752:    7868        hx      LDRB     r0,[r5,#1]
        0x00001754:    1c6d        m.      ADDS     r5,r5,#1
        0x00001756:    282a        *(      CMP      r0,#0x2a
        0x00001758:    d10a        ..      BNE      0x1770 ; _printf_core + 168
        0x0000175a:    cf01        ..      LDM      r7!,{r0}
        0x0000175c:    1c6d        m.      ADDS     r5,r5,#1
        0x0000175e:    9002        ..      STR      r0,[sp,#8]
        0x00001760:    e00b        ..      B        0x177a ; _printf_core + 178
        0x00001762:    9902        ..      LDR      r1,[sp,#8]
        0x00001764:    220a        ."      MOVS     r2,#0xa
        0x00001766:    4351        QC      MULS     r1,r2,r1
        0x00001768:    3930        09      SUBS     r1,r1,#0x30
        0x0000176a:    1840        @.      ADDS     r0,r0,r1
        0x0000176c:    1c6d        m.      ADDS     r5,r5,#1
        0x0000176e:    9002        ..      STR      r0,[sp,#8]
        0x00001770:    7828        (x      LDRB     r0,[r5,#0]
        0x00001772:    4601        .F      MOV      r1,r0
        0x00001774:    3930        09      SUBS     r1,r1,#0x30
        0x00001776:    2909        .)      CMP      r1,#9
        0x00001778:    d9f3        ..      BLS      0x1762 ; _printf_core + 154
        0x0000177a:    7828        (x      LDRB     r0,[r5,#0]
        0x0000177c:    286c        l(      CMP      r0,#0x6c
        0x0000177e:    d010        ..      BEQ      0x17a2 ; _printf_core + 218
        0x00001780:    dc06        ..      BGT      0x1790 ; _printf_core + 200
        0x00001782:    284c        L(      CMP      r0,#0x4c
        0x00001784:    d01a        ..      BEQ      0x17bc ; _printf_core + 244
        0x00001786:    2868        h(      CMP      r0,#0x68
        0x00001788:    d00e        ..      BEQ      0x17a8 ; _printf_core + 224
        0x0000178a:    286a        j(      CMP      r0,#0x6a
        0x0000178c:    d117        ..      BNE      0x17be ; _printf_core + 246
        0x0000178e:    e004        ..      B        0x179a ; _printf_core + 210
        0x00001790:    2874        t(      CMP      r0,#0x74
        0x00001792:    d013        ..      BEQ      0x17bc ; _printf_core + 244
        0x00001794:    287a        z(      CMP      r0,#0x7a
        0x00001796:    d112        ..      BNE      0x17be ; _printf_core + 246
        0x00001798:    e010        ..      B        0x17bc ; _printf_core + 244
        0x0000179a:    2001        .       MOVS     r0,#1
        0x0000179c:    0540        @.      LSLS     r0,r0,#21
        0x0000179e:    4304        .C      ORRS     r4,r4,r0
        0x000017a0:    e00c        ..      B        0x17bc ; _printf_core + 244
        0x000017a2:    2101        .!      MOVS     r1,#1
        0x000017a4:    0509        ..      LSLS     r1,r1,#20
        0x000017a6:    e001        ..      B        0x17ac ; _printf_core + 228
        0x000017a8:    2103        .!      MOVS     r1,#3
        0x000017aa:    0509        ..      LSLS     r1,r1,#20
        0x000017ac:    430c        .C      ORRS     r4,r4,r1
        0x000017ae:    7869        ix      LDRB     r1,[r5,#1]
        0x000017b0:    4281        .B      CMP      r1,r0
        0x000017b2:    d103        ..      BNE      0x17bc ; _printf_core + 244
        0x000017b4:    2001        .       MOVS     r0,#1
        0x000017b6:    0500        ..      LSLS     r0,r0,#20
        0x000017b8:    1824        $.      ADDS     r4,r4,r0
        0x000017ba:    1c6d        m.      ADDS     r5,r5,#1
        0x000017bc:    1c6d        m.      ADDS     r5,r5,#1
        0x000017be:    7828        (x      LDRB     r0,[r5,#0]
        0x000017c0:    9003        ..      STR      r0,[sp,#0xc]
        0x000017c2:    286e        n(      CMP      r0,#0x6e
        0x000017c4:    d01e        ..      BEQ      0x1804 ; _printf_core + 316
        0x000017c6:    dc0c        ..      BGT      0x17e2 ; _printf_core + 282
        0x000017c8:    2863        c(      CMP      r0,#0x63
        0x000017ca:    d031        1.      BEQ      0x1830 ; _printf_core + 360
        0x000017cc:    dc04        ..      BGT      0x17d8 ; _printf_core + 272
        0x000017ce:    2800        .(      CMP      r0,#0
        0x000017d0:    d08a        ..      BEQ      0x16e8 ; _printf_core + 32
        0x000017d2:    2858        X(      CMP      r0,#0x58
        0x000017d4:    d111        ..      BNE      0x17fa ; _printf_core + 306
        0x000017d6:    e0b2        ..      B        0x193e ; _printf_core + 630
        0x000017d8:    2864        d(      CMP      r0,#0x64
        0x000017da:    d07b        {.      BEQ      0x18d4 ; _printf_core + 524
        0x000017dc:    2869        i(      CMP      r0,#0x69
        0x000017de:    d10c        ..      BNE      0x17fa ; _printf_core + 306
        0x000017e0:    e078        x.      B        0x18d4 ; _printf_core + 524
        0x000017e2:    2873        s(      CMP      r0,#0x73
        0x000017e4:    d02d        -.      BEQ      0x1842 ; _printf_core + 378
        0x000017e6:    dc04        ..      BGT      0x17f2 ; _printf_core + 298
        0x000017e8:    286f        o(      CMP      r0,#0x6f
        0x000017ea:    d070        p.      BEQ      0x18ce ; _printf_core + 518
        0x000017ec:    2870        p(      CMP      r0,#0x70
        0x000017ee:    d104        ..      BNE      0x17fa ; _printf_core + 306
        0x000017f0:    e0a7        ..      B        0x1942 ; _printf_core + 634
        0x000017f2:    2875        u(      CMP      r0,#0x75
        0x000017f4:    d06c        l.      BEQ      0x18d0 ; _printf_core + 520
        0x000017f6:    2878        x(      CMP      r0,#0x78
        0x000017f8:    d06b        k.      BEQ      0x18d2 ; _printf_core + 522
        0x000017fa:    9a14        ..      LDR      r2,[sp,#0x50]
        0x000017fc:    9913        ..      LDR      r1,[sp,#0x4c]
        0x000017fe:    4790        .G      BLX      r2
        0x00001800:    1c76        v.      ADDS     r6,r6,#1
        0x00001802:    e062        b.      B        0x18ca ; _printf_core + 514
        0x00001804:    0260        `.      LSLS     r0,r4,#9
        0x00001806:    0f40        @.      LSRS     r0,r0,#29
        0x00001808:    2802        .(      CMP      r0,#2
        0x0000180a:    d007        ..      BEQ      0x181c ; _printf_core + 340
        0x0000180c:    2803        .(      CMP      r0,#3
        0x0000180e:    d00a        ..      BEQ      0x1826 ; _printf_core + 350
        0x00001810:    2804        .(      CMP      r0,#4
        0x00001812:    6838        8h      LDR      r0,[r7,#0]
        0x00001814:    d00a        ..      BEQ      0x182c ; _printf_core + 356
        0x00001816:    6006        .`      STR      r6,[r0,#0]
        0x00001818:    1d3f        ?.      ADDS     r7,r7,#4
        0x0000181a:    e056        V.      B        0x18ca ; _printf_core + 514
        0x0000181c:    6838        8h      LDR      r0,[r7,#0]
        0x0000181e:    17f1        ..      ASRS     r1,r6,#31
        0x00001820:    6006        .`      STR      r6,[r0,#0]
        0x00001822:    6041        A`      STR      r1,[r0,#4]
        0x00001824:    e7f8        ..      B        0x1818 ; _printf_core + 336
        0x00001826:    6838        8h      LDR      r0,[r7,#0]
        0x00001828:    8006        ..      STRH     r6,[r0,#0]
        0x0000182a:    e7f5        ..      B        0x1818 ; _printf_core + 336
        0x0000182c:    7006        .p      STRB     r6,[r0,#0]
        0x0000182e:    e7f3        ..      B        0x1818 ; _printf_core + 336
        0x00001830:    7838        8x      LDRB     r0,[r7,#0]
        0x00001832:    4669        iF      MOV      r1,sp
        0x00001834:    7408        .t      STRB     r0,[r1,#0x10]
        0x00001836:    2000        .       MOVS     r0,#0
        0x00001838:    7448        Ht      STRB     r0,[r1,#0x11]
        0x0000183a:    a804        ..      ADD      r0,sp,#0x10
        0x0000183c:    9003        ..      STR      r0,[sp,#0xc]
        0x0000183e:    2001        .       MOVS     r0,#1
        0x00001840:    e003        ..      B        0x184a ; _printf_core + 386
        0x00001842:    6838        8h      LDR      r0,[r7,#0]
        0x00001844:    9003        ..      STR      r0,[sp,#0xc]
        0x00001846:    2000        .       MOVS     r0,#0
        0x00001848:    43c0        .C      MVNS     r0,r0
        0x0000184a:    1d3f        ?.      ADDS     r7,r7,#4
        0x0000184c:    0761        a.      LSLS     r1,r4,#29
        0x0000184e:    d50f        ..      BPL      0x1870 ; _printf_core + 424
        0x00001850:    2100        .!      MOVS     r1,#0
        0x00001852:    e001        ..      B        0x1858 ; _printf_core + 400
        0x00001854:    9901        ..      LDR      r1,[sp,#4]
        0x00001856:    1c49        I.      ADDS     r1,r1,#1
        0x00001858:    9a02        ..      LDR      r2,[sp,#8]
        0x0000185a:    9101        ..      STR      r1,[sp,#4]
        0x0000185c:    4291        .B      CMP      r1,r2
        0x0000185e:    da13        ..      BGE      0x1888 ; _printf_core + 448
        0x00001860:    4281        .B      CMP      r1,r0
        0x00001862:    dbf7        ..      BLT      0x1854 ; _printf_core + 396
        0x00001864:    9a01        ..      LDR      r2,[sp,#4]
        0x00001866:    9903        ..      LDR      r1,[sp,#0xc]
        0x00001868:    5c89        .\      LDRB     r1,[r1,r2]
        0x0000186a:    2900        .)      CMP      r1,#0
        0x0000186c:    d1f2        ..      BNE      0x1854 ; _printf_core + 396
        0x0000186e:    e00b        ..      B        0x1888 ; _printf_core + 448
        0x00001870:    2100        .!      MOVS     r1,#0
        0x00001872:    e001        ..      B        0x1878 ; _printf_core + 432
        0x00001874:    9901        ..      LDR      r1,[sp,#4]
        0x00001876:    1c49        I.      ADDS     r1,r1,#1
        0x00001878:    9101        ..      STR      r1,[sp,#4]
        0x0000187a:    4281        .B      CMP      r1,r0
        0x0000187c:    dbfa        ..      BLT      0x1874 ; _printf_core + 428
        0x0000187e:    9a01        ..      LDR      r2,[sp,#4]
        0x00001880:    9903        ..      LDR      r1,[sp,#0xc]
        0x00001882:    5c89        .\      LDRB     r1,[r1,r2]
        0x00001884:    2900        .)      CMP      r1,#0
        0x00001886:    d1f5        ..      BNE      0x1874 ; _printf_core + 428
        0x00001888:    9901        ..      LDR      r1,[sp,#4]
        0x0000188a:    9800        ..      LDR      r0,[sp,#0]
        0x0000188c:    9a13        ..      LDR      r2,[sp,#0x4c]
        0x0000188e:    1a40        @.      SUBS     r0,r0,r1
        0x00001890:    9000        ..      STR      r0,[sp,#0]
        0x00001892:    4621        !F      MOV      r1,r4
        0x00001894:    9b14        ..      LDR      r3,[sp,#0x50]
        0x00001896:    f000f93b    ..;.    BL       _printf_pre_padding ; 0x1b10
        0x0000189a:    9901        ..      LDR      r1,[sp,#4]
        0x0000189c:    1980        ..      ADDS     r0,r0,r6
        0x0000189e:    1846        F.      ADDS     r6,r0,r1
        0x000018a0:    e007        ..      B        0x18b2 ; _printf_core + 490
        0x000018a2:    9803        ..      LDR      r0,[sp,#0xc]
        0x000018a4:    9903        ..      LDR      r1,[sp,#0xc]
        0x000018a6:    7800        .x      LDRB     r0,[r0,#0]
        0x000018a8:    1c49        I.      ADDS     r1,r1,#1
        0x000018aa:    9103        ..      STR      r1,[sp,#0xc]
        0x000018ac:    9a14        ..      LDR      r2,[sp,#0x50]
        0x000018ae:    9913        ..      LDR      r1,[sp,#0x4c]
        0x000018b0:    4790        .G      BLX      r2
        0x000018b2:    9801        ..      LDR      r0,[sp,#4]
        0x000018b4:    1e40        @.      SUBS     r0,r0,#1
        0x000018b6:    9001        ..      STR      r0,[sp,#4]
        0x000018b8:    1c40        @.      ADDS     r0,r0,#1
        0x000018ba:    d1f2        ..      BNE      0x18a2 ; _printf_core + 474
        0x000018bc:    4621        !F      MOV      r1,r4
        0x000018be:    9b14        ..      LDR      r3,[sp,#0x50]
        0x000018c0:    9a13        ..      LDR      r2,[sp,#0x4c]
        0x000018c2:    9800        ..      LDR      r0,[sp,#0]
        0x000018c4:    f000f914    ....    BL       _printf_post_padding ; 0x1af0
        0x000018c8:    1986        ..      ADDS     r6,r0,r6
        0x000018ca:    1c6d        m.      ADDS     r5,r5,#1
        0x000018cc:    e709        ..      B        0x16e2 ; _printf_core + 26
        0x000018ce:    e041        A.      B        0x1954 ; _printf_core + 652
        0x000018d0:    e033        3.      B        0x193a ; _printf_core + 626
        0x000018d2:    e034        4.      B        0x193e ; _printf_core + 630
        0x000018d4:    200a        .       MOVS     r0,#0xa
        0x000018d6:    2100        .!      MOVS     r1,#0
        0x000018d8:    9004        ..      STR      r0,[sp,#0x10]
        0x000018da:    9105        ..      STR      r1,[sp,#0x14]
        0x000018dc:    0260        `.      LSLS     r0,r4,#9
        0x000018de:    0f41        A.      LSRS     r1,r0,#29
        0x000018e0:    2902        .)      CMP      r1,#2
        0x000018e2:    d005        ..      BEQ      0x18f0 ; _printf_core + 552
        0x000018e4:    cf01        ..      LDM      r7!,{r0}
        0x000018e6:    17c2        ..      ASRS     r2,r0,#31
        0x000018e8:    4694        .F      MOV      r12,r2
        0x000018ea:    2903        .)      CMP      r1,#3
        0x000018ec:    d005        ..      BEQ      0x18fa ; _printf_core + 562
        0x000018ee:    e007        ..      B        0x1900 ; _printf_core + 568
        0x000018f0:    1dff        ..      ADDS     r7,r7,#7
        0x000018f2:    08ff        ..      LSRS     r7,r7,#3
        0x000018f4:    00ff        ..      LSLS     r7,r7,#3
        0x000018f6:    cf03        ..      LDM      r7!,{r0,r1}
        0x000018f8:    e006        ..      B        0x1908 ; _printf_core + 576
        0x000018fa:    b200        ..      SXTH     r0,r0
        0x000018fc:    17c2        ..      ASRS     r2,r0,#31
        0x000018fe:    4694        .F      MOV      r12,r2
        0x00001900:    2904        .)      CMP      r1,#4
        0x00001902:    d102        ..      BNE      0x190a ; _printf_core + 578
        0x00001904:    b240        @.      SXTB     r0,r0
        0x00001906:    17c1        ..      ASRS     r1,r0,#31
        0x00001908:    468c        .F      MOV      r12,r1
        0x0000190a:    2200        ."      MOVS     r2,#0
        0x0000190c:    4661        aF      MOV      r1,r12
        0x0000190e:    4594        .E      CMP      r12,r2
        0x00001910:    da06        ..      BGE      0x1920 ; _printf_core + 600
        0x00001912:    460a        .F      MOV      r2,r1
        0x00001914:    2100        .!      MOVS     r1,#0
        0x00001916:    4240        @B      RSBS     r0,r0,#0
        0x00001918:    4191        .A      SBCS     r1,r1,r2
        0x0000191a:    468c        .F      MOV      r12,r1
        0x0000191c:    212d        -!      MOVS     r1,#0x2d
        0x0000191e:    e002        ..      B        0x1926 ; _printf_core + 606
        0x00001920:    0521        !.      LSLS     r1,r4,#20
        0x00001922:    d504        ..      BPL      0x192e ; _printf_core + 614
        0x00001924:    212b        +!      MOVS     r1,#0x2b
        0x00001926:    466a        jF      MOV      r2,sp
        0x00001928:    7611        .v      STRB     r1,[r2,#0x18]
        0x0000192a:    2101        .!      MOVS     r1,#1
        0x0000192c:    e003        ..      B        0x1936 ; _printf_core + 622
        0x0000192e:    07e1        ..      LSLS     r1,r4,#31
        0x00001930:    d001        ..      BEQ      0x1936 ; _printf_core + 622
        0x00001932:    2120         !      MOVS     r1,#0x20
        0x00001934:    e7f7        ..      B        0x1926 ; _printf_core + 606
        0x00001936:    9101        ..      STR      r1,[sp,#4]
        0x00001938:    e054        T.      B        0x19e4 ; _printf_core + 796
        0x0000193a:    200a        .       MOVS     r0,#0xa
        0x0000193c:    e00b        ..      B        0x1956 ; _printf_core + 654
        0x0000193e:    2010        .       MOVS     r0,#0x10
        0x00001940:    e009        ..      B        0x1956 ; _printf_core + 654
        0x00001942:    2010        .       MOVS     r0,#0x10
        0x00001944:    9004        ..      STR      r0,[sp,#0x10]
        0x00001946:    2100        .!      MOVS     r1,#0
        0x00001948:    2004        .       MOVS     r0,#4
        0x0000194a:    4304        .C      ORRS     r4,r4,r0
        0x0000194c:    2008        .       MOVS     r0,#8
        0x0000194e:    9105        ..      STR      r1,[sp,#0x14]
        0x00001950:    9002        ..      STR      r0,[sp,#8]
        0x00001952:    e003        ..      B        0x195c ; _printf_core + 660
        0x00001954:    2008        .       MOVS     r0,#8
        0x00001956:    2100        .!      MOVS     r1,#0
        0x00001958:    9105        ..      STR      r1,[sp,#0x14]
        0x0000195a:    9004        ..      STR      r0,[sp,#0x10]
        0x0000195c:    0260        `.      LSLS     r0,r4,#9
        0x0000195e:    0f41        A.      LSRS     r1,r0,#29
        0x00001960:    2902        .)      CMP      r1,#2
        0x00001962:    d005        ..      BEQ      0x1970 ; _printf_core + 680
        0x00001964:    cf01        ..      LDM      r7!,{r0}
        0x00001966:    2200        ."      MOVS     r2,#0
        0x00001968:    4694        .F      MOV      r12,r2
        0x0000196a:    2903        .)      CMP      r1,#3
        0x0000196c:    d006        ..      BEQ      0x197c ; _printf_core + 692
        0x0000196e:    e006        ..      B        0x197e ; _printf_core + 694
        0x00001970:    1dff        ..      ADDS     r7,r7,#7
        0x00001972:    08ff        ..      LSRS     r7,r7,#3
        0x00001974:    00ff        ..      LSLS     r7,r7,#3
        0x00001976:    cf03        ..      LDM      r7!,{r0,r1}
        0x00001978:    468c        .F      MOV      r12,r1
        0x0000197a:    e003        ..      B        0x1984 ; _printf_core + 700
        0x0000197c:    b280        ..      UXTH     r0,r0
        0x0000197e:    2904        .)      CMP      r1,#4
        0x00001980:    d100        ..      BNE      0x1984 ; _printf_core + 700
        0x00001982:    b2c0        ..      UXTB     r0,r0
        0x00001984:    2100        .!      MOVS     r1,#0
        0x00001986:    9101        ..      STR      r1,[sp,#4]
        0x00001988:    0721        !.      LSLS     r1,r4,#28
        0x0000198a:    d52b        +.      BPL      0x19e4 ; _printf_core + 796
        0x0000198c:    9903        ..      LDR      r1,[sp,#0xc]
        0x0000198e:    2970        p)      CMP      r1,#0x70
        0x00001990:    d006        ..      BEQ      0x19a0 ; _printf_core + 728
        0x00001992:    9a04        ..      LDR      r2,[sp,#0x10]
        0x00001994:    2110        .!      MOVS     r1,#0x10
        0x00001996:    9b05        ..      LDR      r3,[sp,#0x14]
        0x00001998:    404a        J@      EORS     r2,r2,r1
        0x0000199a:    431a        .C      ORRS     r2,r2,r3
        0x0000199c:    d005        ..      BEQ      0x19aa ; _printf_core + 738
        0x0000199e:    e00e        ..      B        0x19be ; _printf_core + 758
        0x000019a0:    2140        @!      MOVS     r1,#0x40
        0x000019a2:    466a        jF      MOV      r2,sp
        0x000019a4:    7611        .v      STRB     r1,[r2,#0x18]
        0x000019a6:    2101        .!      MOVS     r1,#1
        0x000019a8:    e008        ..      B        0x19bc ; _printf_core + 756
        0x000019aa:    4661        aF      MOV      r1,r12
        0x000019ac:    4301        .C      ORRS     r1,r1,r0
        0x000019ae:    d006        ..      BEQ      0x19be ; _printf_core + 758
        0x000019b0:    2130        0!      MOVS     r1,#0x30
        0x000019b2:    466a        jF      MOV      r2,sp
        0x000019b4:    7611        .v      STRB     r1,[r2,#0x18]
        0x000019b6:    9903        ..      LDR      r1,[sp,#0xc]
        0x000019b8:    7651        Qv      STRB     r1,[r2,#0x19]
        0x000019ba:    2102        .!      MOVS     r1,#2
        0x000019bc:    9101        ..      STR      r1,[sp,#4]
        0x000019be:    9a04        ..      LDR      r2,[sp,#0x10]
        0x000019c0:    2108        .!      MOVS     r1,#8
        0x000019c2:    9b05        ..      LDR      r3,[sp,#0x14]
        0x000019c4:    404a        J@      EORS     r2,r2,r1
        0x000019c6:    431a        .C      ORRS     r2,r2,r3
        0x000019c8:    d10c        ..      BNE      0x19e4 ; _printf_core + 796
        0x000019ca:    4661        aF      MOV      r1,r12
        0x000019cc:    4301        .C      ORRS     r1,r1,r0
        0x000019ce:    d101        ..      BNE      0x19d4 ; _printf_core + 780
        0x000019d0:    0761        a.      LSLS     r1,r4,#29
        0x000019d2:    d507        ..      BPL      0x19e4 ; _printf_core + 796
        0x000019d4:    2130        0!      MOVS     r1,#0x30
        0x000019d6:    466a        jF      MOV      r2,sp
        0x000019d8:    7611        .v      STRB     r1,[r2,#0x18]
        0x000019da:    2101        .!      MOVS     r1,#1
        0x000019dc:    9101        ..      STR      r1,[sp,#4]
        0x000019de:    9902        ..      LDR      r1,[sp,#8]
        0x000019e0:    1e49        I.      SUBS     r1,r1,#1
        0x000019e2:    9102        ..      STR      r1,[sp,#8]
        0x000019e4:    9903        ..      LDR      r1,[sp,#0xc]
        0x000019e6:    2958        X)      CMP      r1,#0x58
        0x000019e8:    d004        ..      BEQ      0x19f4 ; _printf_core + 812
        0x000019ea:    a137        7.      ADR      r1,{pc}+0xde ; 0x1ac8
        0x000019ec:    9103        ..      STR      r1,[sp,#0xc]
        0x000019ee:    a90f        ..      ADD      r1,sp,#0x3c
        0x000019f0:    910f        ..      STR      r1,[sp,#0x3c]
        0x000019f2:    e00d        ..      B        0x1a10 ; _printf_core + 840
        0x000019f4:    a139        9.      ADR      r1,{pc}+0xe8 ; 0x1adc
        0x000019f6:    e7f9        ..      B        0x19ec ; _printf_core + 804
        0x000019f8:    4661        aF      MOV      r1,r12
        0x000019fa:    9b05        ..      LDR      r3,[sp,#0x14]
        0x000019fc:    9a04        ..      LDR      r2,[sp,#0x10]
        0x000019fe:    f7fefbc5    ....    BL       __aeabi_uldivmod ; 0x18c
        0x00001a02:    9b03        ..      LDR      r3,[sp,#0xc]
        0x00001a04:    468c        .F      MOV      r12,r1
        0x00001a06:    5c9b        .\      LDRB     r3,[r3,r2]
        0x00001a08:    9a0f        ..      LDR      r2,[sp,#0x3c]
        0x00001a0a:    1e52        R.      SUBS     r2,r2,#1
        0x00001a0c:    920f        ..      STR      r2,[sp,#0x3c]
        0x00001a0e:    7013        .p      STRB     r3,[r2,#0]
        0x00001a10:    4661        aF      MOV      r1,r12
        0x00001a12:    4301        .C      ORRS     r1,r1,r0
        0x00001a14:    d1f0        ..      BNE      0x19f8 ; _printf_core + 816
        0x00001a16:    980f        ..      LDR      r0,[sp,#0x3c]
        0x00001a18:    a907        ..      ADD      r1,sp,#0x1c
        0x00001a1a:    1a08        ..      SUBS     r0,r1,r0
        0x00001a1c:    3020         0      ADDS     r0,r0,#0x20
        0x00001a1e:    9003        ..      STR      r0,[sp,#0xc]
        0x00001a20:    0760        `.      LSLS     r0,r4,#29
        0x00001a22:    d504        ..      BPL      0x1a2e ; _printf_core + 870
        0x00001a24:    2001        .       MOVS     r0,#1
        0x00001a26:    0400        ..      LSLS     r0,r0,#16
        0x00001a28:    4384        .C      BICS     r4,r4,r0
        0x00001a2a:    9802        ..      LDR      r0,[sp,#8]
        0x00001a2c:    e001        ..      B        0x1a32 ; _printf_core + 874
        0x00001a2e:    2001        .       MOVS     r0,#1
        0x00001a30:    9002        ..      STR      r0,[sp,#8]
        0x00001a32:    9903        ..      LDR      r1,[sp,#0xc]
        0x00001a34:    4288        .B      CMP      r0,r1
        0x00001a36:    dd01        ..      BLE      0x1a3c ; _printf_core + 884
        0x00001a38:    1a40        @.      SUBS     r0,r0,r1
        0x00001a3a:    e000        ..      B        0x1a3e ; _printf_core + 886
        0x00001a3c:    2000        .       MOVS     r0,#0
        0x00001a3e:    1841        A.      ADDS     r1,r0,r1
        0x00001a40:    9002        ..      STR      r0,[sp,#8]
        0x00001a42:    9801        ..      LDR      r0,[sp,#4]
        0x00001a44:    1809        ..      ADDS     r1,r1,r0
        0x00001a46:    9800        ..      LDR      r0,[sp,#0]
        0x00001a48:    1a40        @.      SUBS     r0,r0,r1
        0x00001a4a:    9000        ..      STR      r0,[sp,#0]
        0x00001a4c:    03e0        ..      LSLS     r0,r4,#15
        0x00001a4e:    d406        ..      BMI      0x1a5e ; _printf_core + 918
        0x00001a50:    4621        !F      MOV      r1,r4
        0x00001a52:    9b14        ..      LDR      r3,[sp,#0x50]
        0x00001a54:    9a13        ..      LDR      r2,[sp,#0x4c]
        0x00001a56:    9800        ..      LDR      r0,[sp,#0]
        0x00001a58:    f000f85a    ..Z.    BL       _printf_pre_padding ; 0x1b10
        0x00001a5c:    1986        ..      ADDS     r6,r0,r6
        0x00001a5e:    2000        .       MOVS     r0,#0
        0x00001a60:    9004        ..      STR      r0,[sp,#0x10]
        0x00001a62:    e008        ..      B        0x1a76 ; _printf_core + 942
        0x00001a64:    a906        ..      ADD      r1,sp,#0x18
        0x00001a66:    5c08        .\      LDRB     r0,[r1,r0]
        0x00001a68:    9a14        ..      LDR      r2,[sp,#0x50]
        0x00001a6a:    9913        ..      LDR      r1,[sp,#0x4c]
        0x00001a6c:    4790        .G      BLX      r2
        0x00001a6e:    9804        ..      LDR      r0,[sp,#0x10]
        0x00001a70:    1c40        @.      ADDS     r0,r0,#1
        0x00001a72:    1c76        v.      ADDS     r6,r6,#1
        0x00001a74:    9004        ..      STR      r0,[sp,#0x10]
        0x00001a76:    9901        ..      LDR      r1,[sp,#4]
        0x00001a78:    4288        .B      CMP      r0,r1
        0x00001a7a:    dbf3        ..      BLT      0x1a64 ; _printf_core + 924
        0x00001a7c:    03e0        ..      LSLS     r0,r4,#15
        0x00001a7e:    d50c        ..      BPL      0x1a9a ; _printf_core + 978
        0x00001a80:    4621        !F      MOV      r1,r4
        0x00001a82:    9b14        ..      LDR      r3,[sp,#0x50]
        0x00001a84:    9a13        ..      LDR      r2,[sp,#0x4c]
        0x00001a86:    9800        ..      LDR      r0,[sp,#0]
        0x00001a88:    f000f842    ..B.    BL       _printf_pre_padding ; 0x1b10
        0x00001a8c:    1986        ..      ADDS     r6,r0,r6
        0x00001a8e:    e004        ..      B        0x1a9a ; _printf_core + 978
        0x00001a90:    9a14        ..      LDR      r2,[sp,#0x50]
        0x00001a92:    2030        0       MOVS     r0,#0x30
        0x00001a94:    9913        ..      LDR      r1,[sp,#0x4c]
        0x00001a96:    4790        .G      BLX      r2
        0x00001a98:    1c76        v.      ADDS     r6,r6,#1
        0x00001a9a:    9902        ..      LDR      r1,[sp,#8]
        0x00001a9c:    1e48        H.      SUBS     r0,r1,#1
        0x00001a9e:    9002        ..      STR      r0,[sp,#8]
        0x00001aa0:    2900        .)      CMP      r1,#0
        0x00001aa2:    dcf5        ..      BGT      0x1a90 ; _printf_core + 968
        0x00001aa4:    e008        ..      B        0x1ab8 ; _printf_core + 1008
        0x00001aa6:    980f        ..      LDR      r0,[sp,#0x3c]
        0x00001aa8:    990f        ..      LDR      r1,[sp,#0x3c]
        0x00001aaa:    7800        .x      LDRB     r0,[r0,#0]
        0x00001aac:    1c49        I.      ADDS     r1,r1,#1
        0x00001aae:    910f        ..      STR      r1,[sp,#0x3c]
        0x00001ab0:    9a14        ..      LDR      r2,[sp,#0x50]
        0x00001ab2:    9913        ..      LDR      r1,[sp,#0x4c]
        0x00001ab4:    4790        .G      BLX      r2
        0x00001ab6:    1c76        v.      ADDS     r6,r6,#1
        0x00001ab8:    9903        ..      LDR      r1,[sp,#0xc]
        0x00001aba:    1e48        H.      SUBS     r0,r1,#1
        0x00001abc:    9003        ..      STR      r0,[sp,#0xc]
        0x00001abe:    2900        .)      CMP      r1,#0
        0x00001ac0:    dcf1        ..      BGT      0x1aa6 ; _printf_core + 990
        0x00001ac2:    e6fb        ..      B        0x18bc ; _printf_core + 500
    $d
        0x00001ac4:    00012809    .(..    DCD    75785
        0x00001ac8:    33323130    0123    DCD    858927408
        0x00001acc:    37363534    4567    DCD    926299444
        0x00001ad0:    62613938    89ab    DCD    1650538808
        0x00001ad4:    66656463    cdef    DCD    1717920867
        0x00001ad8:    00000000    ....    DCD    0
        0x00001adc:    33323130    0123    DCD    858927408
        0x00001ae0:    37363534    4567    DCD    926299444
        0x00001ae4:    42413938    89AB    DCD    1111570744
        0x00001ae8:    46454443    CDEF    DCD    1178944579
        0x00001aec:    00000000    ....    DCD    0
    $t
    i._printf_post_padding
    _printf_post_padding
        0x00001af0:    b5f8        ..      PUSH     {r3-r7,lr}
        0x00001af2:    4604        .F      MOV      r4,r0
        0x00001af4:    2500        .%      MOVS     r5,#0
        0x00001af6:    461e        .F      MOV      r6,r3
        0x00001af8:    4617        .F      MOV      r7,r2
        0x00001afa:    0488        ..      LSLS     r0,r1,#18
        0x00001afc:    d404        ..      BMI      0x1b08 ; _printf_post_padding + 24
        0x00001afe:    e005        ..      B        0x1b0c ; _printf_post_padding + 28
        0x00001b00:    4639        9F      MOV      r1,r7
        0x00001b02:    2020                MOVS     r0,#0x20
        0x00001b04:    47b0        .G      BLX      r6
        0x00001b06:    1c6d        m.      ADDS     r5,r5,#1
        0x00001b08:    1e64        d.      SUBS     r4,r4,#1
        0x00001b0a:    d5f9        ..      BPL      0x1b00 ; _printf_post_padding + 16
        0x00001b0c:    4628        (F      MOV      r0,r5
        0x00001b0e:    bdf8        ..      POP      {r3-r7,pc}
    i._printf_pre_padding
    _printf_pre_padding
        0x00001b10:    b5ff        ..      PUSH     {r0-r7,lr}
        0x00001b12:    4604        .F      MOV      r4,r0
        0x00001b14:    2500        .%      MOVS     r5,#0
        0x00001b16:    b081        ..      SUB      sp,sp,#4
        0x00001b18:    461e        .F      MOV      r6,r3
        0x00001b1a:    03c8        ..      LSLS     r0,r1,#15
        0x00001b1c:    d501        ..      BPL      0x1b22 ; _printf_pre_padding + 18
        0x00001b1e:    2730        0'      MOVS     r7,#0x30
        0x00001b20:    e000        ..      B        0x1b24 ; _printf_pre_padding + 20
        0x00001b22:    2720         '      MOVS     r7,#0x20
        0x00001b24:    0488        ..      LSLS     r0,r1,#18
        0x00001b26:    d504        ..      BPL      0x1b32 ; _printf_pre_padding + 34
        0x00001b28:    e005        ..      B        0x1b36 ; _printf_pre_padding + 38
        0x00001b2a:    4638        8F      MOV      r0,r7
        0x00001b2c:    9903        ..      LDR      r1,[sp,#0xc]
        0x00001b2e:    47b0        .G      BLX      r6
        0x00001b30:    1c6d        m.      ADDS     r5,r5,#1
        0x00001b32:    1e64        d.      SUBS     r4,r4,#1
        0x00001b34:    d5f9        ..      BPL      0x1b2a ; _printf_pre_padding + 26
        0x00001b36:    4628        (F      MOV      r0,r5
        0x00001b38:    b005        ..      ADD      sp,sp,#0x14
        0x00001b3a:    bdf0        ..      POP      {r4-r7,pc}
    i.check_reset_source
    check_reset_source
        0x00001b3c:    b510        ..      PUSH     {r4,lr}
        0x00001b3e:    f7fffa05    ....    BL       SYS_GetResetSrc ; 0xf4c
        0x00001b42:    4604        .F      MOV      r4,r0
        0x00001b44:    2005        .       MOVS     r0,#5
        0x00001b46:    0700        ..      LSLS     r0,r0,#28
        0x00001b48:    6841        Ah      LDR      r1,[r0,#4]
        0x00001b4a:    22ff        ."      MOVS     r2,#0xff
        0x00001b4c:    4311        .C      ORRS     r1,r1,r2
        0x00001b4e:    6041        A`      STR      r1,[r0,#4]
        0x00001b50:    4621        !F      MOV      r1,r4
        0x00001b52:    a030        0.      ADR      r0,{pc}+0xc2 ; 0x1c14
        0x00001b54:    f7fffd98    ....    BL       __0printf$8 ; 0x1688
        0x00001b58:    07e0        ..      LSLS     r0,r4,#31
        0x00001b5a:    d002        ..      BEQ      0x1b62 ; check_reset_source + 38
        0x00001b5c:    a033        3.      ADR      r0,{pc}+0xd0 ; 0x1c2c
        0x00001b5e:    f7fffd93    ....    BL       __0printf$8 ; 0x1688
        0x00001b62:    07a0        ..      LSLS     r0,r4,#30
        0x00001b64:    d502        ..      BPL      0x1b6c ; check_reset_source + 48
        0x00001b66:    a037        7.      ADR      r0,{pc}+0xde ; 0x1c44
        0x00001b68:    f7fffd8e    ....    BL       __0printf$8 ; 0x1688
        0x00001b6c:    0760        `.      LSLS     r0,r4,#29
        0x00001b6e:    d502        ..      BPL      0x1b76 ; check_reset_source + 58
        0x00001b70:    a03b        ;.      ADR      r0,{pc}+0xf0 ; 0x1c60
        0x00001b72:    f7fffd89    ....    BL       __0printf$8 ; 0x1688
        0x00001b76:    0720         .      LSLS     r0,r4,#28
        0x00001b78:    d502        ..      BPL      0x1b80 ; check_reset_source + 68
        0x00001b7a:    a041        A.      ADR      r0,{pc}+0x106 ; 0x1c80
        0x00001b7c:    f7fffd84    ....    BL       __0printf$8 ; 0x1688
        0x00001b80:    06e0        ..      LSLS     r0,r4,#27
        0x00001b82:    d502        ..      BPL      0x1b8a ; check_reset_source + 78
        0x00001b84:    a045        E.      ADR      r0,{pc}+0x118 ; 0x1c9c
        0x00001b86:    f7fffd7f    ....    BL       __0printf$8 ; 0x1688
        0x00001b8a:    06a0        ..      LSLS     r0,r4,#26
        0x00001b8c:    d502        ..      BPL      0x1b94 ; check_reset_source + 88
        0x00001b8e:    a04c        L.      ADR      r0,{pc}+0x132 ; 0x1cc0
        0x00001b90:    f7fffd7a    ..z.    BL       __0printf$8 ; 0x1688
        0x00001b94:    0660        `.      LSLS     r0,r4,#25
        0x00001b96:    d502        ..      BPL      0x1b9e ; check_reset_source + 98
        0x00001b98:    a04e        N.      ADR      r0,{pc}+0x13c ; 0x1cd4
        0x00001b9a:    f7fffd75    ..u.    BL       __0printf$8 ; 0x1688
        0x00001b9e:    0620         .      LSLS     r0,r4,#24
        0x00001ba0:    d502        ..      BPL      0x1ba8 ; check_reset_source + 108
        0x00001ba2:    a050        P.      ADR      r0,{pc}+0x142 ; 0x1ce4
        0x00001ba4:    f7fffd70    ..p.    BL       __0printf$8 ; 0x1688
        0x00001ba8:    07e0        ..      LSLS     r0,r4,#31
        0x00001baa:    d004        ..      BEQ      0x1bb6 ; check_reset_source + 122
        0x00001bac:    2001        .       MOVS     r0,#1
        0x00001bae:    f7fff9c7    ....    BL       SYS_ClearResetSrc ; 0xf40
        0x00001bb2:    a051        Q.      ADR      r0,{pc}+0x146 ; 0x1cf8
        0x00001bb4:    e028        (.      B        0x1c08 ; check_reset_source + 204
        0x00001bb6:    07a0        ..      LSLS     r0,r4,#30
        0x00001bb8:    d504        ..      BPL      0x1bc4 ; check_reset_source + 136
        0x00001bba:    2002        .       MOVS     r0,#2
        0x00001bbc:    f7fff9c0    ....    BL       SYS_ClearResetSrc ; 0xf40
        0x00001bc0:    a052        R.      ADR      r0,{pc}+0x14c ; 0x1d0c
        0x00001bc2:    e021        !.      B        0x1c08 ; check_reset_source + 204
        0x00001bc4:    0760        `.      LSLS     r0,r4,#29
        0x00001bc6:    d504        ..      BPL      0x1bd2 ; check_reset_source + 150
        0x00001bc8:    2004        .       MOVS     r0,#4
        0x00001bca:    f7fff9b9    ....    BL       SYS_ClearResetSrc ; 0xf40
        0x00001bce:    a056        V.      ADR      r0,{pc}+0x15a ; 0x1d28
        0x00001bd0:    e01a        ..      B        0x1c08 ; check_reset_source + 204
        0x00001bd2:    0720         .      LSLS     r0,r4,#28
        0x00001bd4:    d504        ..      BPL      0x1be0 ; check_reset_source + 164
        0x00001bd6:    2008        .       MOVS     r0,#8
        0x00001bd8:    f7fff9b2    ....    BL       SYS_ClearResetSrc ; 0xf40
        0x00001bdc:    a059        Y.      ADR      r0,{pc}+0x168 ; 0x1d44
        0x00001bde:    e013        ..      B        0x1c08 ; check_reset_source + 204
        0x00001be0:    06e0        ..      LSLS     r0,r4,#27
        0x00001be2:    d504        ..      BPL      0x1bee ; check_reset_source + 178
        0x00001be4:    2010        .       MOVS     r0,#0x10
        0x00001be6:    f7fff9ab    ....    BL       SYS_ClearResetSrc ; 0xf40
        0x00001bea:    a05d        ].      ADR      r0,{pc}+0x176 ; 0x1d60
        0x00001bec:    e00c        ..      B        0x1c08 ; check_reset_source + 204
        0x00001bee:    06a0        ..      LSLS     r0,r4,#26
        0x00001bf0:    d504        ..      BPL      0x1bfc ; check_reset_source + 192
        0x00001bf2:    2020                MOVS     r0,#0x20
        0x00001bf4:    f7fff9a4    ....    BL       SYS_ClearResetSrc ; 0xf40
        0x00001bf8:    a060        `.      ADR      r0,{pc}+0x184 ; 0x1d7c
        0x00001bfa:    e005        ..      B        0x1c08 ; check_reset_source + 204
        0x00001bfc:    0620         .      LSLS     r0,r4,#24
        0x00001bfe:    d507        ..      BPL      0x1c10 ; check_reset_source + 212
        0x00001c00:    2080        .       MOVS     r0,#0x80
        0x00001c02:    f7fff99d    ....    BL       SYS_ClearResetSrc ; 0xf40
        0x00001c06:    a065        e.      ADR      r0,{pc}+0x196 ; 0x1d9c
        0x00001c08:    f7fffd3e    ..>.    BL       __0printf$8 ; 0x1688
        0x00001c0c:    2000        .       MOVS     r0,#0
        0x00001c0e:    bd10        ..      POP      {r4,pc}
        0x00001c10:    a069        i.      ADR      r0,{pc}+0x1a8 ; 0x1db8
        0x00001c12:    e7f9        ..      B        0x1c08 ; check_reset_source + 204
    $d
        0x00001c14:    65736552    Rese    DCD    1702061394
        0x00001c18:    6f532074    t So    DCD    1867718772
        0x00001c1c:    65637275    urce    DCD    1701016181
        0x00001c20:    78303c20     <0x    DCD    2016427040
        0x00001c24:    58383025    %08X    DCD    1480077349
        0x00001c28:    000a0d3e    >...    DCD    658750
        0x00001c2c:    6f502930    0)Po    DCD    1867524400
        0x00001c30:    2d726577    wer-    DCD    762471799
        0x00001c34:    52206e4f    On R    DCD    1377857103
        0x00001c38:    74657365    eset    DCD    1952805733
        0x00001c3c:    616c4620     Fla    DCD    1634485792
        0x00001c40:    000a0d67    g...    DCD    658791
        0x00001c44:    65522931    1)Re    DCD    1699883313
        0x00001c48:    20746573    set     DCD    544499059
        0x00001c4c:    206e6950    Pin     DCD    544106832
        0x00001c50:    65736552    Rese    DCD    1702061394
        0x00001c54:    6c462074    t Fl    DCD    1816535156
        0x00001c58:    0a0d6761    ag..    DCD    168650593
        0x00001c5c:    00000000    ....    DCD    0
        0x00001c60:    61572932    2)Wa    DCD    1633102130
        0x00001c64:    64686374    tchd    DCD    1684562804
        0x00001c68:    5420676f    og T    DCD    1411409775
        0x00001c6c:    72656d69    imer    DCD    1919249769
        0x00001c70:    73655220     Res    DCD    1936020000
        0x00001c74:    46207465    et F    DCD    1176532069
        0x00001c78:    0d67616c    lag.    DCD    224878956
        0x00001c7c:    0000000a    ....    DCD    10
        0x00001c80:    6f4c2933    3)Lo    DCD    1867262259
        0x00001c84:    6f562077    w Vo    DCD    1867915383
        0x00001c88:    6761746c    ltag    DCD    1734440044
        0x00001c8c:    65522065    e Re    DCD    1699881061
        0x00001c90:    20746573    set     DCD    544499059
        0x00001c94:    67616c46    Flag    DCD    1734437958
        0x00001c98:    00000a0d    ....    DCD    2573
        0x00001c9c:    72422934    4)Br    DCD    1916938548
        0x00001ca0:    2d6e776f    own-    DCD    762214255
        0x00001ca4:    2074754f    Out     DCD    544503119
        0x00001ca8:    65746544    Dete    DCD    1702126916
        0x00001cac:    726f7463    ctor    DCD    1919906915
        0x00001cb0:    73655220     Res    DCD    1936020000
        0x00001cb4:    46207465    et F    DCD    1176532069
        0x00001cb8:    0d67616c    lag.    DCD    224878956
        0x00001cbc:    0000000a    ....    DCD    10
        0x00001cc0:    59532935    5)SY    DCD    1498622261
        0x00001cc4:    65522053    S Re    DCD    1699881043
        0x00001cc8:    20746573    set     DCD    544499059
        0x00001ccc:    67616c46    Flag    DCD    1734437958
        0x00001cd0:    00000a0d    ....    DCD    2573
        0x00001cd4:    65522936    6)Re    DCD    1699883318
        0x00001cd8:    76726573    serv    DCD    1987208563
        0x00001cdc:    0d2e6465    ed..    DCD    221144165
        0x00001ce0:    0000000a    ....    DCD    10
        0x00001ce4:    50432937    7)CP    DCD    1346578743
        0x00001ce8:    65522055    U Re    DCD    1699881045
        0x00001cec:    20746573    set     DCD    544499059
        0x00001cf0:    67616c46    Flag    DCD    1734437958
        0x00001cf4:    000a0d20     ...    DCD    658720
        0x00001cf8:    65776f70    powe    DCD    1702326128
        0x00001cfc:    6e6f2072    r on    DCD    1852776562
        0x00001d00:    6f726620     fro    DCD    1869768224
        0x00001d04:    4f50206d    m PO    DCD    1330651245
        0x00001d08:    000a0d52    R...    DCD    658770
        0x00001d0c:    65776f70    powe    DCD    1702326128
        0x00001d10:    6e6f2072    r on    DCD    1852776562
        0x00001d14:    6f726620     fro    DCD    1869768224
        0x00001d18:    526e206d    m nR    DCD    1382948973
        0x00001d1c:    54455345    ESET    DCD    1413829445
        0x00001d20:    6e697020     pin    DCD    1852403744
        0x00001d24:    00000a0d    ....    DCD    2573
        0x00001d28:    65776f70    powe    DCD    1702326128
        0x00001d2c:    6e6f2072    r on    DCD    1852776562
        0x00001d30:    6f726620     fro    DCD    1869768224
        0x00001d34:    4457206d    m WD    DCD    1146560621
        0x00001d38:    65522054    T Re    DCD    1699881044
        0x00001d3c:    0d746573    set.    DCD    225731955
        0x00001d40:    0000000a    ....    DCD    10
        0x00001d44:    65776f70    powe    DCD    1702326128
        0x00001d48:    6e6f2072    r on    DCD    1852776562
        0x00001d4c:    6f726620     fro    DCD    1869768224
        0x00001d50:    564c206d    m LV    DCD    1447829613
        0x00001d54:    65522052    R Re    DCD    1699881042
        0x00001d58:    0d746573    set.    DCD    225731955
        0x00001d5c:    0000000a    ....    DCD    10
        0x00001d60:    65776f70    powe    DCD    1702326128
        0x00001d64:    6e6f2072    r on    DCD    1852776562
        0x00001d68:    6f726620     fro    DCD    1869768224
        0x00001d6c:    4f42206d    m BO    DCD    1329733741
        0x00001d70:    65522044    D Re    DCD    1699881028
        0x00001d74:    0d746573    set.    DCD    225731955
        0x00001d78:    0000000a    ....    DCD    10
        0x00001d7c:    65776f70    powe    DCD    1702326128
        0x00001d80:    6e6f2072    r on    DCD    1852776562
        0x00001d84:    6f726620     fro    DCD    1869768224
        0x00001d88:    7953206d    m Sy    DCD    2035490925
        0x00001d8c:    6d657473    stem    DCD    1835365491
        0x00001d90:    73655220     Res    DCD    1936020000
        0x00001d94:    0a0d7465    et..    DCD    168653925
        0x00001d98:    00000000    ....    DCD    0
        0x00001d9c:    65776f70    powe    DCD    1702326128
        0x00001da0:    6e6f2072    r on    DCD    1852776562
        0x00001da4:    6f726620     fro    DCD    1869768224
        0x00001da8:    5043206d    m CP    DCD    1346576493
        0x00001dac:    65722055    U re    DCD    1701978197
        0x00001db0:    0d746573    set.    DCD    225731955
        0x00001db4:    0000000a    ....    DCD    10
        0x00001db8:    65776f70    powe    DCD    1702326128
        0x00001dbc:    6e6f2072    r on    DCD    1852776562
        0x00001dc0:    6f726620     fro    DCD    1869768224
        0x00001dc4:    6e75206d    m un    DCD    1853169773
        0x00001dc8:    646e6168    hand    DCD    1684955496
        0x00001dcc:    7220656c    le r    DCD    1914725740
        0x00001dd0:    74657365    eset    DCD    1952805733
        0x00001dd4:    756f7320     sou    DCD    1970238240
        0x00001dd8:    0d656372    rce.    DCD    224748402
        0x00001ddc:    0000000a    ....    DCD    10
    $t
    i.fputc
    fputc
        0x00001de0:    b500        ..      PUSH     {lr}
        0x00001de2:    4603        .F      MOV      r3,r0
        0x00001de4:    f7fff93e    ..>.    BL       SendChar_ToUART ; 0x1064
        0x00001de8:    4618        .F      MOV      r0,r3
        0x00001dea:    bd00        ..      POP      {pc}
    i.loop
    loop
        0x00001dec:    b510        ..      PUSH     {r4,lr}
        0x00001dee:    481e        .H      LDR      r0,[pc,#120] ; [0x1e68] = 0x2000002c
        0x00001df0:    6840        @h      LDR      r0,[r0,#4]
        0x00001df2:    4c1d        .L      LDR      r4,[pc,#116] ; [0x1e68] = 0x2000002c
        0x00001df4:    3418        .4      ADDS     r4,r4,#0x18
        0x00001df6:    6820         h      LDR      r0,[r4,#0]
        0x00001df8:    07c1        ..      LSLS     r1,r0,#31
        0x00001dfa:    d007        ..      BEQ      0x1e0c ; loop + 32
        0x00001dfc:    0840        @.      LSRS     r0,r0,#1
        0x00001dfe:    0040        @.      LSLS     r0,r0,#1
        0x00001e00:    6020         `      STR      r0,[r4,#0]
        0x00001e02:    481a        .H      LDR      r0,[pc,#104] ; [0x1e6c] = 0x50004240
        0x00001e04:    6901        .i      LDR      r1,[r0,#0x10]
        0x00001e06:    2201        ."      MOVS     r2,#1
        0x00001e08:    4051        Q@      EORS     r1,r1,r2
        0x00001e0a:    6101        .a      STR      r1,[r0,#0x10]
        0x00001e0c:    6820         h      LDR      r0,[r4,#0]
        0x00001e0e:    0781        ..      LSLS     r1,r0,#30
        0x00001e10:    d504        ..      BPL      0x1e1c ; loop + 48
        0x00001e12:    2102        .!      MOVS     r1,#2
        0x00001e14:    4388        .C      BICS     r0,r0,r1
        0x00001e16:    6020         `      STR      r0,[r4,#0]
        0x00001e18:    f7fff85e    ..^.    BL       SPI_Write_Packet ; 0xed8
        0x00001e1c:    6820         h      LDR      r0,[r4,#0]
        0x00001e1e:    0741        A.      LSLS     r1,r0,#29
        0x00001e20:    d505        ..      BPL      0x1e2e ; loop + 66
        0x00001e22:    2104        .!      MOVS     r1,#4
        0x00001e24:    4388        .C      BICS     r0,r0,r1
        0x00001e26:    6020         `      STR      r0,[r4,#0]
        0x00001e28:    4608        .F      MOV      r0,r1
        0x00001e2a:    f7fffbad    ....    BL       Write_SPI_Mode_Record ; 0x1588
        0x00001e2e:    6820         h      LDR      r0,[r4,#0]
        0x00001e30:    0701        ..      LSLS     r1,r0,#28
        0x00001e32:    d505        ..      BPL      0x1e40 ; loop + 84
        0x00001e34:    2108        .!      MOVS     r1,#8
        0x00001e36:    4388        .C      BICS     r0,r0,r1
        0x00001e38:    6020         `      STR      r0,[r4,#0]
        0x00001e3a:    2002        .       MOVS     r0,#2
        0x00001e3c:    f7fffba4    ....    BL       Write_SPI_Mode_Record ; 0x1588
        0x00001e40:    6820         h      LDR      r0,[r4,#0]
        0x00001e42:    06c1        ..      LSLS     r1,r0,#27
        0x00001e44:    d505        ..      BPL      0x1e52 ; loop + 102
        0x00001e46:    2110        .!      MOVS     r1,#0x10
        0x00001e48:    4388        .C      BICS     r0,r0,r1
        0x00001e4a:    6020         `      STR      r0,[r4,#0]
        0x00001e4c:    4808        .H      LDR      r0,[pc,#32] ; [0x1e70] = 0x802
        0x00001e4e:    f7fffb9b    ....    BL       Write_SPI_Mode_Record ; 0x1588
        0x00001e52:    6820         h      LDR      r0,[r4,#0]
        0x00001e54:    0681        ..      LSLS     r1,r0,#26
        0x00001e56:    d506        ..      BPL      0x1e66 ; loop + 122
        0x00001e58:    2120         !      MOVS     r1,#0x20
        0x00001e5a:    4388        .C      BICS     r0,r0,r1
        0x00001e5c:    6020         `      STR      r0,[r4,#0]
        0x00001e5e:    4804        .H      LDR      r0,[pc,#16] ; [0x1e70] = 0x802
        0x00001e60:    1c80        ..      ADDS     r0,r0,#2
        0x00001e62:    f7fffb91    ....    BL       Write_SPI_Mode_Record ; 0x1588
        0x00001e66:    bd10        ..      POP      {r4,pc}
    $d
        0x00001e68:    2000002c    ,..     DCD    536870956
        0x00001e6c:    50004240    @B.P    DCD    1342194240
        0x00001e70:    00000802    ....    DCD    2050
    $t
    i.main
    main
        0x00001e74:    f7fff86e    ..n.    BL       SYS_Init ; 0xf54
        0x00001e78:    f7fefeea    ....    BL       GPIO_Init ; 0xc50
        0x00001e7c:    f7fffa68    ..h.    BL       UART0_Init ; 0x1350
        0x00001e80:    f7fff9c0    ....    BL       TIMER1_Init ; 0x1204
        0x00001e84:    f7fffe5a    ..Z.    BL       check_reset_source ; 0x1b3c
        0x00001e88:    207d        }       MOVS     r0,#0x7d
        0x00001e8a:    00c0        ..      LSLS     r0,r0,#3
        0x00001e8c:    f7fff932    ..2.    BL       SysTick_enable ; 0x10f4
        0x00001e90:    f7fefce8    ....    BL       DataFlashInit ; 0x864
        0x00001e94:    f7fefc50    ..P.    BL       Check_SPI_Mode_Record ; 0x738
        0x00001e98:    f7feff22    ..".    BL       SPI_Init ; 0xce0
        0x00001e9c:    f7ffffa6    ....    BL       loop ; 0x1dec
        0x00001ea0:    e7fc        ..      B        0x1e9c ; main + 40
        0x00001ea2:    0000        ..      MOVS     r0,r0
    i.stackDump
    stackDump
        0x00001ea4:    b510        ..      PUSH     {r4,lr}
        0x00001ea6:    4604        .F      MOV      r4,r0
        0x00001ea8:    6801        .h      LDR      r1,[r0,#0]
        0x00001eaa:    a010        ..      ADR      r0,{pc}+0x42 ; 0x1eec
        0x00001eac:    f7fffbec    ....    BL       __0printf$8 ; 0x1688
        0x00001eb0:    a011        ..      ADR      r0,{pc}+0x48 ; 0x1ef8
        0x00001eb2:    6861        ah      LDR      r1,[r4,#4]
        0x00001eb4:    f7fffbe8    ....    BL       __0printf$8 ; 0x1688
        0x00001eb8:    a012        ..      ADR      r0,{pc}+0x4c ; 0x1f04
        0x00001eba:    68a1        .h      LDR      r1,[r4,#8]
        0x00001ebc:    f7fffbe4    ....    BL       __0printf$8 ; 0x1688
        0x00001ec0:    a013        ..      ADR      r0,{pc}+0x50 ; 0x1f10
        0x00001ec2:    68e1        .h      LDR      r1,[r4,#0xc]
        0x00001ec4:    f7fffbe0    ....    BL       __0printf$8 ; 0x1688
        0x00001ec8:    a014        ..      ADR      r0,{pc}+0x54 ; 0x1f1c
        0x00001eca:    6921        !i      LDR      r1,[r4,#0x10]
        0x00001ecc:    f7fffbdc    ....    BL       __0printf$8 ; 0x1688
        0x00001ed0:    a015        ..      ADR      r0,{pc}+0x58 ; 0x1f28
        0x00001ed2:    6961        ai      LDR      r1,[r4,#0x14]
        0x00001ed4:    f7fffbd8    ....    BL       __0printf$8 ; 0x1688
        0x00001ed8:    a016        ..      ADR      r0,{pc}+0x5c ; 0x1f34
        0x00001eda:    69a1        .i      LDR      r1,[r4,#0x18]
        0x00001edc:    f7fffbd4    ....    BL       __0printf$8 ; 0x1688
        0x00001ee0:    a017        ..      ADR      r0,{pc}+0x60 ; 0x1f40
        0x00001ee2:    69e1        .i      LDR      r1,[r4,#0x1c]
        0x00001ee4:    f7fffbd0    ....    BL       __0printf$8 ; 0x1688
        0x00001ee8:    bd10        ..      POP      {r4,pc}
    $d
        0x00001eea:    0000        ..      DCW    0
        0x00001eec:    20203072    r0      DCD    538980466
        0x00001ef0:    7830203d    = 0x    DCD    2016419901
        0x00001ef4:    000a7825    %x..    DCD    686117
        0x00001ef8:    20203172    r1      DCD    538980722
        0x00001efc:    7830203d    = 0x    DCD    2016419901
        0x00001f00:    000a7825    %x..    DCD    686117
        0x00001f04:    20203272    r2      DCD    538980978
        0x00001f08:    7830203d    = 0x    DCD    2016419901
        0x00001f0c:    000a7825    %x..    DCD    686117
        0x00001f10:    20203372    r3      DCD    538981234
        0x00001f14:    7830203d    = 0x    DCD    2016419901
        0x00001f18:    000a7825    %x..    DCD    686117
        0x00001f1c:    20323172    r12     DCD    540160370
        0x00001f20:    7830203d    = 0x    DCD    2016419901
        0x00001f24:    000a7825    %x..    DCD    686117
        0x00001f28:    2020726c    lr      DCD    538997356
        0x00001f2c:    7830203d    = 0x    DCD    2016419901
        0x00001f30:    000a7825    %x..    DCD    686117
        0x00001f34:    20206370    pc      DCD    538993520
        0x00001f38:    7830203d    = 0x    DCD    2016419901
        0x00001f3c:    000a7825    %x..    DCD    686117
        0x00001f40:    20727370    psr     DCD    544371568
        0x00001f44:    7830203d    = 0x    DCD    2016419901
        0x00001f48:    000a7825    %x..    DCD    686117
    $t
    i.systick_counter
    systick_counter
        0x00001f4c:    4802        .H      LDR      r0,[pc,#8] ; [0x1f58] = 0x2000002c
        0x00001f4e:    6841        Ah      LDR      r1,[r0,#4]
        0x00001f50:    1c49        I.      ADDS     r1,r1,#1
        0x00001f52:    6041        A`      STR      r1,[r0,#4]
        0x00001f54:    4770        pG      BX       lr
    $d
        0x00001f56:    0000        ..      DCW    0
        0x00001f58:    2000002c    ,..     DCD    536870956
    $t
    i.tick_counter
    tick_counter
        0x00001f5c:    4805        .H      LDR      r0,[pc,#20] ; [0x1f74] = 0x2000002c
        0x00001f5e:    6881        .h      LDR      r1,[r0,#8]
        0x00001f60:    1c49        I.      ADDS     r1,r1,#1
        0x00001f62:    6081        .`      STR      r1,[r0,#8]
        0x00001f64:    6881        .h      LDR      r1,[r0,#8]
        0x00001f66:    4a04        .J      LDR      r2,[pc,#16] ; [0x1f78] = 0xea60
        0x00001f68:    4291        .B      CMP      r1,r2
        0x00001f6a:    d301        ..      BCC      0x1f70 ; tick_counter + 20
        0x00001f6c:    2100        .!      MOVS     r1,#0
        0x00001f6e:    6081        .`      STR      r1,[r0,#8]
        0x00001f70:    4770        pG      BX       lr
    $d
        0x00001f72:    0000        ..      DCW    0
        0x00001f74:    2000002c    ,..     DCD    536870956
        0x00001f78:    0000ea60    `...    DCD    60000
    $d.realdata
    .constdata
    __FUNCTION__
        0x00001f7c:    74697257    Writ    DCD    1953067607
        0x00001f80:    50535f65    e_SP    DCD    1347641189
        0x00001f84:    6f4d5f49    I_Mo    DCD    1867341641
        0x00001f88:    525f6564    de_R    DCD    1381983588
        0x00001f8c:    726f6365    ecor    DCD    1919902565
        0x00001f90:    0064        d.      DCW    100
    __FUNCTION__
        0x00001f92:    6843        Ch      DCW    26691
        0x00001f94:    5f6b6365    eck_    DCD    1600873317
        0x00001f98:    5f495053    SPI_    DCD    1598640211
        0x00001f9c:    65646f4d    Mode    DCD    1701080909
        0x00001fa0:    6365525f    _Rec    DCD    1667584607
        0x00001fa4:    0064726f    ord.    DCD    6582895
    __FUNCTION__
        0x00001fa8:    5f495053    SPI_    DCD    1598640211
        0x00001fac:    74696e49    Init    DCD    1953066569
        0x00001fb0:    00          .       DCB    0
    .constdata
    __FUNCTION__
        0x00001fb1:    446174      Dat     DCB    68,97,116
        0x00001fb4:    616c4661    aFla    DCD    1634485857
        0x00001fb8:    6e496873    shIn    DCD    1850304627
        0x00001fbc:    00007469    it..    DCD    29801
    .constdata
        0x00001fc0:    00b71b00    ....    DCD    12000000
        0x00001fc4:    00000000    ....    DCD    0
        0x00001fc8:    00000000    ....    DCD    0
        0x00001fcc:    01518000    ..Q.    DCD    22118400
        0x00001fd0:    00b71b00    ....    DCD    12000000
        0x00001fd4:    00000000    ....    DCD    0
        0x00001fd8:    00000000    ....    DCD    0
        0x00001fdc:    01518000    ..Q.    DCD    22118400
        0x00001fe0:    00b71b00    ....    DCD    12000000
        0x00001fe4:    00000000    ....    DCD    0
        0x00001fe8:    00000000    ....    DCD    0
        0x00001fec:    01518000    ..Q.    DCD    22118400
    .constdata
        0x00001ff0:    00000000    ....    DCD    0
        0x00001ff4:    00000020     ...    DCD    32
        0x00001ff8:    00000000    ....    DCD    0
        0x00001ffc:    00000004    ....    DCD    4
        0x00002000:    0000000c    ....    DCD    12
        0x00002004:    00000024    $...    DCD    36
        0x00002008:    00000000    ....    DCD    0
        0x0000200c:    00000004    ....    DCD    4
        0x00002010:    0000002c    ,...    DCD    44
        0x00002014:    00000000    ....    DCD    0
        0x00002018:    00000000    ....    DCD    0
        0x0000201c:    00000004    ....    DCD    4
        0x00002020:    0000002c    ,...    DCD    44
        0x00002024:    00000000    ....    DCD    0
    .constdata
        0x00002028:    00b71b00    ....    DCD    12000000
        0x0000202c:    00008000    ....    DCD    32768
        0x00002030:    00000000    ....    DCD    0
        0x00002034:    00000000    ....    DCD    0
        0x00002038:    00000000    ....    DCD    0
        0x0000203c:    00002710    .'..    DCD    10000
        0x00002040:    00000000    ....    DCD    0
        0x00002044:    01518000    ..Q.    DCD    22118400
    Region$$Table$$Base
        0x00002048:    00002068    h ..    DCD    8296
        0x0000204c:    20000000    ...     DCD    536870912
        0x00002050:    0000004c    L...    DCD    76
        0x00002054:    000016a8    ....    DCD    5800
        0x00002058:    000020b4    . ..    DCD    8372
        0x0000205c:    2000004c    L..     DCD    536870988
        0x00002060:    00000604    ....    DCD    1540
        0x00002064:    000016b8    ....    DCD    5816
    Region$$Table$$Limit

** Section #2 'ER_RW' (SHT_PROGBITS) [SHF_ALLOC + SHF_WRITE]
    Size   : 76 bytes (alignment 4)
    Address: 0x20000000


** Section #3 'ER_ZI' (SHT_NOBITS) [SHF_ALLOC + SHF_WRITE]
    Size   : 1540 bytes (alignment 8)
    Address: 0x2000004c


** Section #4 '.debug_abbrev' (SHT_PROGBITS)
    Size   : 1476 bytes


** Section #5 '.debug_frame' (SHT_PROGBITS)
    Size   : 2564 bytes


** Section #6 '.debug_info' (SHT_PROGBITS)
    Size   : 36852 bytes


** Section #7 '.debug_line' (SHT_PROGBITS)
    Size   : 15124 bytes


** Section #8 '.debug_loc' (SHT_PROGBITS)
    Size   : 5156 bytes


** Section #9 '.debug_macinfo' (SHT_PROGBITS)
    Size   : 80936 bytes


** Section #10 '.debug_pubnames' (SHT_PROGBITS)
    Size   : 2570 bytes


** Section #11 '.symtab' (SHT_SYMTAB)
    Size   : 7680 bytes (alignment 4)
    String table #12 '.strtab'
    Last local symbol no. 309


** Section #12 '.strtab' (SHT_STRTAB)
    Size   : 5608 bytes


** Section #13 '.note' (SHT_NOTE)
    Size   : 28 bytes (alignment 4)


** Section #14 '.comment' (SHT_PROGBITS)
    Size   : 13124 bytes


** Section #15 '.shstrtab' (SHT_STRTAB)
    Size   : 156 bytes


